
main.elf:     file format elf32-littlearm


Disassembly of section .crt0:

02000000 <__text_start>:
 2000000:	ea00002e 	b	20000c0 <rom_header_end>
	...
 20000b0:	00963130 	addseq	r3, r6, r0, lsr r1
	...
 20000bc:	0000f000 	andeq	pc, r0, r0

020000c0 <rom_header_end>:
 20000c0:	ea000006 	b	20000e0 <start_vector>

020000c4 <__boot_method>:
	...

020000c5 <__slave_number>:
	...

020000e0 <start_vector>:
 20000e0:	e3a00301 	mov	r0, #67108864	; 0x4000000
 20000e4:	e5800208 	str	r0, [r0, #520]	; 0x208
 20000e8:	e3a00012 	mov	r0, #18
 20000ec:	e129f000 	msr	CPSR_fc, r0
 20000f0:	e59fd0b8 	ldr	sp, [pc, #184]	; 20001b0 <CIDExit+0x4>
 20000f4:	e3a0001f 	mov	r0, #31
 20000f8:	e129f000 	msr	CPSR_fc, r0
 20000fc:	e59fd0b0 	ldr	sp, [pc, #176]	; 20001b4 <CIDExit+0x8>
 2000100:	e28f0001 	add	r0, pc, #1
 2000104:	e12fff10 	bx	r0
 2000108:	482b      	ldr	r0, [pc, #172]	; (20001b8 <CIDExit+0xc>)
 200010a:	0140      	lsls	r0, r0, #5
 200010c:	d20b      	bcs.n	2000126 <DoEWRAMClear>
 200010e:	4678      	mov	r0, pc
 2000110:	0140      	lsls	r0, r0, #5
 2000112:	d30d      	bcc.n	2000130 <SkipEWRAMClear>
 2000114:	2202      	movs	r2, #2
 2000116:	0612      	lsls	r2, r2, #24
 2000118:	4b28      	ldr	r3, [pc, #160]	; (20001bc <CIDExit+0x10>)
 200011a:	1a9b      	subs	r3, r3, r2
 200011c:	1c16      	adds	r6, r2, #0
 200011e:	0091      	lsls	r1, r2, #2
 2000120:	f000 f83c 	bl	200019c <CopyMem>
 2000124:	4730      	bx	r6

02000126 <DoEWRAMClear>:
 2000126:	2140      	movs	r1, #64	; 0x40
 2000128:	0309      	lsls	r1, r1, #12
 200012a:	01c8      	lsls	r0, r1, #7
 200012c:	f000 f82b 	bl	2000186 <ClearMem>

02000130 <SkipEWRAMClear>:
 2000130:	4823      	ldr	r0, [pc, #140]	; (20001c0 <CIDExit+0x14>)
 2000132:	4924      	ldr	r1, [pc, #144]	; (20001c4 <CIDExit+0x18>)
 2000134:	1a09      	subs	r1, r1, r0
 2000136:	f000 f826 	bl	2000186 <ClearMem>
 200013a:	4823      	ldr	r0, [pc, #140]	; (20001c8 <CIDExit+0x1c>)
 200013c:	4923      	ldr	r1, [pc, #140]	; (20001cc <CIDExit+0x20>)
 200013e:	1a09      	subs	r1, r1, r0
 2000140:	f000 f821 	bl	2000186 <ClearMem>
 2000144:	4922      	ldr	r1, [pc, #136]	; (20001d0 <CIDExit+0x24>)
 2000146:	4a23      	ldr	r2, [pc, #140]	; (20001d4 <CIDExit+0x28>)
 2000148:	4c23      	ldr	r4, [pc, #140]	; (20001d8 <CIDExit+0x2c>)
 200014a:	f000 f826 	bl	200019a <CopyMemChk>
 200014e:	4923      	ldr	r1, [pc, #140]	; (20001dc <CIDExit+0x30>)
 2000150:	4a23      	ldr	r2, [pc, #140]	; (20001e0 <CIDExit+0x34>)
 2000152:	4c24      	ldr	r4, [pc, #144]	; (20001e4 <CIDExit+0x38>)
 2000154:	f000 f821 	bl	200019a <CopyMemChk>
 2000158:	4a23      	ldr	r2, [pc, #140]	; (20001e8 <CIDExit+0x3c>)
 200015a:	4924      	ldr	r1, [pc, #144]	; (20001ec <CIDExit+0x40>)
 200015c:	1a53      	subs	r3, r2, r1
 200015e:	d002      	beq.n	2000166 <CIW0Skip>
 2000160:	4a23      	ldr	r2, [pc, #140]	; (20001f0 <CIDExit+0x44>)
 2000162:	f000 f81b 	bl	200019c <CopyMem>

02000166 <CIW0Skip>:
 2000166:	4923      	ldr	r1, [pc, #140]	; (20001f4 <CIDExit+0x48>)
 2000168:	4a23      	ldr	r2, [pc, #140]	; (20001f8 <CIDExit+0x4c>)
 200016a:	4c24      	ldr	r4, [pc, #144]	; (20001fc <CIDExit+0x50>)
 200016c:	f000 f815 	bl	200019a <CopyMemChk>

02000170 <CEW0Skip>:
 2000170:	4923      	ldr	r1, [pc, #140]	; (2000200 <CIDExit+0x54>)
 2000172:	4824      	ldr	r0, [pc, #144]	; (2000204 <CIDExit+0x58>)
 2000174:	6008      	str	r0, [r1, #0]
 2000176:	4b24      	ldr	r3, [pc, #144]	; (2000208 <CIDExit+0x5c>)
 2000178:	f000 f80e 	bl	2000198 <_blx_r3_stub>
 200017c:	2000      	movs	r0, #0
 200017e:	2100      	movs	r1, #0
 2000180:	4b22      	ldr	r3, [pc, #136]	; (200020c <CIDExit+0x60>)
 2000182:	f000 f809 	bl	2000198 <_blx_r3_stub>

02000186 <ClearMem>:
 2000186:	2203      	movs	r2, #3
 2000188:	1889      	adds	r1, r1, r2
 200018a:	4391      	bics	r1, r2
 200018c:	d003      	beq.n	2000196 <ClearMX>
 200018e:	2200      	movs	r2, #0

02000190 <ClrLoop>:
 2000190:	c004      	stmia	r0!, {r2}
 2000192:	3904      	subs	r1, #4
 2000194:	d1fc      	bne.n	2000190 <ClrLoop>

02000196 <ClearMX>:
 2000196:	4770      	bx	lr

02000198 <_blx_r3_stub>:
 2000198:	4718      	bx	r3

0200019a <CopyMemChk>:
 200019a:	1aa3      	subs	r3, r4, r2

0200019c <CopyMem>:
 200019c:	2003      	movs	r0, #3
 200019e:	181b      	adds	r3, r3, r0
 20001a0:	4383      	bics	r3, r0
 20001a2:	d003      	beq.n	20001ac <CIDExit>

020001a4 <CIDLoop>:
 20001a4:	c901      	ldmia	r1!, {r0}
 20001a6:	c201      	stmia	r2!, {r0}
 20001a8:	3b04      	subs	r3, #4
 20001aa:	d1fb      	bne.n	20001a4 <CIDLoop>

020001ac <CIDExit>:
 20001ac:	4770      	bx	lr
 20001ae:	46c0      	nop			; (mov r8, r8)
 20001b0:	03007fa0 	movweq	r7, #4000	; 0xfa0
 20001b4:	03007f00 	movweq	r7, #3840	; 0xf00
 20001b8:	02000000 	andeq	r0, r0, #0
 20001bc:	020186fc 	andeq	r8, r1, #252, 12	; 0xfc00000
 20001c0:	030001e4 	movweq	r0, #484	; 0x1e4
 20001c4:	030012a4 	movweq	r1, #676	; 0x2a4
 20001c8:	020186fc 	andeq	r8, r1, #252, 12	; 0xfc00000
 20001cc:	020186fc 	andeq	r8, r1, #252, 12	; 0xfc00000
 20001d0:	0200fe60 	andeq	pc, r0, #96, 28	; 0x600
 20001d4:	030012a4 	movweq	r1, #676	; 0x2a4
 20001d8:	03001e40 	movweq	r1, #3648	; 0xe40
 20001dc:	0200fc7c 	andeq	pc, r0, #124, 24	; 0x7c00
 20001e0:	03000000 	movweq	r0, #0
 20001e4:	030001e4 	movweq	r0, #484	; 0x1e4
 20001e8:	020109fc 	andeq	r0, r1, #252, 18	; 0x3f0000
 20001ec:	020109fc 	andeq	r0, r1, #252, 18	; 0x3f0000
 20001f0:	03001e40 	movweq	r1, #3648	; 0xe40
 20001f4:	020109fc 	andeq	r0, r1, #252, 18	; 0x3f0000
 20001f8:	020109fc 	andeq	r0, r1, #252, 18	; 0x3f0000
 20001fc:	020186fc 	andeq	r8, r1, #252, 12	; 0xfc00000
 2000200:	03000c04 	movweq	r0, #3076	; 0xc04
 2000204:	02040000 	andeq	r0, r4, #0
 2000208:	02006769 	andeq	r6, r0, #27525120	; 0x1a40000
 200020c:	02006639 	andeq	r6, r0, #59768832	; 0x3900000

Disassembly of section .init:

02000210 <_init>:
 2000210:	b5f8      	push	{r3, r4, r5, r6, r7, lr}
 2000212:	46c0      	nop			; (mov r8, r8)
 2000214:	bcf8      	pop	{r3, r4, r5, r6, r7}
 2000216:	bc08      	pop	{r3}
 2000218:	469e      	mov	lr, r3
 200021a:	4770      	bx	lr

Disassembly of section .text:

0200021c <ROM>:
 200021c:	4b02      	ldr	r3, [pc, #8]	; (2000228 <.plt+0xc>)
 200021e:	0500      	lsls	r0, r0, #20
 2000220:	0d00      	lsrs	r0, r0, #20
 2000222:	5c18      	ldrb	r0, [r3, r0]
 2000224:	4770      	bx	lr
 2000226:	46c0      	nop			; (mov r8, r8)
 2000228:	0200c1c8 	andeq	ip, r0, #200, 2	; 0x32

0200022c <Initialize>:
 200022c:	4770      	bx	lr
 200022e:	46c0      	nop			; (mov r8, r8)

02000230 <ext_IRQ>:
 2000230:	4770      	bx	lr
 2000232:	46c0      	nop			; (mov r8, r8)

02000234 <tim_IRQ>:
 2000234:	4770      	bx	lr
 2000236:	46c0      	nop			; (mov r8, r8)

02000238 <mcs48_Execute>:
 2000238:	2200      	movs	r2, #0
 200023a:	4b0b      	ldr	r3, [pc, #44]	; (2000268 <mcs48_Execute+0x30>)
 200023c:	b510      	push	{r4, lr}
 200023e:	601a      	str	r2, [r3, #0]
 2000240:	4a0a      	ldr	r2, [pc, #40]	; (200026c <mcs48_Execute+0x34>)
 2000242:	8813      	ldrh	r3, [r2, #0]
 2000244:	1c59      	adds	r1, r3, #1
 2000246:	8011      	strh	r1, [r2, #0]
 2000248:	051b      	lsls	r3, r3, #20
 200024a:	4a09      	ldr	r2, [pc, #36]	; (2000270 <mcs48_Execute+0x38>)
 200024c:	0d1b      	lsrs	r3, r3, #20
 200024e:	5cd0      	ldrb	r0, [r2, r3]
 2000250:	4b08      	ldr	r3, [pc, #32]	; (2000274 <mcs48_Execute+0x3c>)
 2000252:	7018      	strb	r0, [r3, #0]
 2000254:	230f      	movs	r3, #15
 2000256:	4a08      	ldr	r2, [pc, #32]	; (2000278 <mcs48_Execute+0x40>)
 2000258:	4003      	ands	r3, r0
 200025a:	7013      	strb	r3, [r2, #0]
 200025c:	4b07      	ldr	r3, [pc, #28]	; (200027c <mcs48_Execute+0x44>)
 200025e:	f000 f80f 	bl	2000280 <mcs48_Execute+0x48>
 2000262:	bc10      	pop	{r4}
 2000264:	bc01      	pop	{r0}
 2000266:	4700      	bx	r0
 2000268:	03001070 	movweq	r1, #112	; 0x70
 200026c:	030010d2 	movweq	r1, #210	; 0xd2
 2000270:	0200c1c8 	andeq	ip, r0, #200, 2	; 0x32
 2000274:	030010dc 	movweq	r1, #220	; 0xdc
 2000278:	03001077 	movweq	r1, #119	; 0x77
 200027c:	020023cc 	andeq	r2, r0, #204, 6	; 0x30000003
 2000280:	4718      	bx	r3
 2000282:	46c0      	nop			; (mov r8, r8)

02000284 <help>:
 2000284:	b5f8      	push	{r3, r4, r5, r6, r7, lr}
 2000286:	464e      	mov	r6, r9
 2000288:	4645      	mov	r5, r8
 200028a:	46de      	mov	lr, fp
 200028c:	4657      	mov	r7, sl
 200028e:	b5e0      	push	{r5, r6, r7, lr}
 2000290:	2600      	movs	r6, #0
 2000292:	4c47      	ldr	r4, [pc, #284]	; (20003b0 <help+0x12c>)
 2000294:	4d47      	ldr	r5, [pc, #284]	; (20003b4 <help+0x130>)
 2000296:	f001 fa14 	bl	20016c2 <menu+0x2c6>
 200029a:	0630      	lsls	r0, r6, #24
 200029c:	0e00      	lsrs	r0, r0, #24
 200029e:	3601      	adds	r6, #1
 20002a0:	f001 fa10 	bl	20016c4 <menu+0x2c8>
 20002a4:	2e10      	cmp	r6, #16
 20002a6:	d1f6      	bne.n	2000296 <help+0x12>
 20002a8:	4b43      	ldr	r3, [pc, #268]	; (20003b8 <help+0x134>)
 20002aa:	f001 fa09 	bl	20016c0 <menu+0x2c4>
 20002ae:	2300      	movs	r3, #0
 20002b0:	4e42      	ldr	r6, [pc, #264]	; (20003bc <help+0x138>)
 20002b2:	7033      	strb	r3, [r6, #0]
 20002b4:	4b42      	ldr	r3, [pc, #264]	; (20003c0 <help+0x13c>)
 20002b6:	2100      	movs	r1, #0
 20002b8:	4699      	mov	r9, r3
 20002ba:	4f42      	ldr	r7, [pc, #264]	; (20003c4 <help+0x140>)
 20002bc:	008b      	lsls	r3, r1, #2
 20002be:	3102      	adds	r1, #2
 20002c0:	0609      	lsls	r1, r1, #24
 20002c2:	0e09      	lsrs	r1, r1, #24
 20002c4:	58fa      	ldr	r2, [r7, r3]
 20002c6:	2000      	movs	r0, #0
 20002c8:	f001 f9ff 	bl	20016ca <menu+0x2ce>
 20002cc:	7831      	ldrb	r1, [r6, #0]
 20002ce:	3101      	adds	r1, #1
 20002d0:	0609      	lsls	r1, r1, #24
 20002d2:	0e09      	lsrs	r1, r1, #24
 20002d4:	7031      	strb	r1, [r6, #0]
 20002d6:	2909      	cmp	r1, #9
 20002d8:	d9f0      	bls.n	20002bc <help+0x38>
 20002da:	4b3b      	ldr	r3, [pc, #236]	; (20003c8 <help+0x144>)
 20002dc:	2112      	movs	r1, #18
 20002de:	001a      	movs	r2, r3
 20002e0:	2000      	movs	r0, #0
 20002e2:	469b      	mov	fp, r3
 20002e4:	f001 f9f1 	bl	20016ca <menu+0x2ce>
 20002e8:	4b38      	ldr	r3, [pc, #224]	; (20003cc <help+0x148>)
 20002ea:	2113      	movs	r1, #19
 20002ec:	001a      	movs	r2, r3
 20002ee:	2000      	movs	r0, #0
 20002f0:	469a      	mov	sl, r3
 20002f2:	f001 f9ea 	bl	20016ca <menu+0x2ce>
 20002f6:	4b36      	ldr	r3, [pc, #216]	; (20003d0 <help+0x14c>)
 20002f8:	2100      	movs	r1, #0
 20002fa:	691a      	ldr	r2, [r3, #16]
 20002fc:	2000      	movs	r0, #0
 20002fe:	f001 f9e4 	bl	20016ca <menu+0x2ce>
 2000302:	2710      	movs	r7, #16
 2000304:	f001 f9dd 	bl	20016c2 <menu+0x2c6>
 2000308:	0638      	lsls	r0, r7, #24
 200030a:	0e00      	lsrs	r0, r0, #24
 200030c:	3f01      	subs	r7, #1
 200030e:	f001 f9d9 	bl	20016c4 <menu+0x2c8>
 2000312:	2f00      	cmp	r7, #0
 2000314:	d1f6      	bne.n	2000304 <help+0x80>
 2000316:	4b2f      	ldr	r3, [pc, #188]	; (20003d4 <help+0x150>)
 2000318:	881a      	ldrh	r2, [r3, #0]
 200031a:	0792      	lsls	r2, r2, #30
 200031c:	d507      	bpl.n	200032e <help+0xaa>
 200031e:	4698      	mov	r8, r3
 2000320:	3702      	adds	r7, #2
 2000322:	f001 f9ce 	bl	20016c2 <menu+0x2c6>
 2000326:	4643      	mov	r3, r8
 2000328:	881b      	ldrh	r3, [r3, #0]
 200032a:	421f      	tst	r7, r3
 200032c:	d1f9      	bne.n	2000322 <help+0x9e>
 200032e:	2700      	movs	r7, #0
 2000330:	f001 f9c7 	bl	20016c2 <menu+0x2c6>
 2000334:	0638      	lsls	r0, r7, #24
 2000336:	0e00      	lsrs	r0, r0, #24
 2000338:	3701      	adds	r7, #1
 200033a:	f001 f9c3 	bl	20016c4 <menu+0x2c8>
 200033e:	2f10      	cmp	r7, #16
 2000340:	d1f6      	bne.n	2000330 <help+0xac>
 2000342:	4b1d      	ldr	r3, [pc, #116]	; (20003b8 <help+0x134>)
 2000344:	f001 f9bc 	bl	20016c0 <menu+0x2c4>
 2000348:	2300      	movs	r3, #0
 200034a:	7033      	strb	r3, [r6, #0]
 200034c:	4b22      	ldr	r3, [pc, #136]	; (20003d8 <help+0x154>)
 200034e:	2100      	movs	r1, #0
 2000350:	4698      	mov	r8, r3
 2000352:	4642      	mov	r2, r8
 2000354:	008b      	lsls	r3, r1, #2
 2000356:	3107      	adds	r1, #7
 2000358:	0609      	lsls	r1, r1, #24
 200035a:	0e09      	lsrs	r1, r1, #24
 200035c:	58d2      	ldr	r2, [r2, r3]
 200035e:	2001      	movs	r0, #1
 2000360:	f001 f9b3 	bl	20016ca <menu+0x2ce>
 2000364:	7831      	ldrb	r1, [r6, #0]
 2000366:	3101      	adds	r1, #1
 2000368:	0609      	lsls	r1, r1, #24
 200036a:	0e09      	lsrs	r1, r1, #24
 200036c:	7031      	strb	r1, [r6, #0]
 200036e:	2907      	cmp	r1, #7
 2000370:	d9ef      	bls.n	2000352 <help+0xce>
 2000372:	465a      	mov	r2, fp
 2000374:	2112      	movs	r1, #18
 2000376:	2000      	movs	r0, #0
 2000378:	f001 f9a7 	bl	20016ca <menu+0x2ce>
 200037c:	4652      	mov	r2, sl
 200037e:	2113      	movs	r1, #19
 2000380:	2000      	movs	r0, #0
 2000382:	f001 f9a2 	bl	20016ca <menu+0x2ce>
 2000386:	2200      	movs	r2, #0
 2000388:	2610      	movs	r6, #16
 200038a:	4b14      	ldr	r3, [pc, #80]	; (20003dc <help+0x158>)
 200038c:	701a      	strb	r2, [r3, #0]
 200038e:	f001 f998 	bl	20016c2 <menu+0x2c6>
 2000392:	0630      	lsls	r0, r6, #24
 2000394:	0e00      	lsrs	r0, r0, #24
 2000396:	3e01      	subs	r6, #1
 2000398:	f001 f994 	bl	20016c4 <menu+0x2c8>
 200039c:	2e00      	cmp	r6, #0
 200039e:	d1f6      	bne.n	200038e <help+0x10a>
 20003a0:	bc3c      	pop	{r2, r3, r4, r5}
 20003a2:	4690      	mov	r8, r2
 20003a4:	4699      	mov	r9, r3
 20003a6:	46a2      	mov	sl, r4
 20003a8:	46ab      	mov	fp, r5
 20003aa:	bcf8      	pop	{r3, r4, r5, r6, r7}
 20003ac:	bc01      	pop	{r0}
 20003ae:	4700      	bx	r0
 20003b0:	02002509 	andeq	r2, r0, #37748736	; 0x2400000
 20003b4:	02004641 	andeq	r4, r0, #68157440	; 0x4100000
 20003b8:	020027ed 	andeq	r2, r0, #62128128	; 0x3b40000
 20003bc:	0300105f 	movweq	r1, #95	; 0x5f
 20003c0:	02002791 	andeq	r2, r0, #38010880	; 0x2440000
 20003c4:	03001370 	movweq	r1, #880	; 0x370
 20003c8:	0200d24c 	andeq	sp, r0, #76, 4	; 0xc0000004
 20003cc:	0200d23c 	andeq	sp, r0, #60, 4	; 0xc0000003
 20003d0:	03001348 	movweq	r1, #840	; 0x348
 20003d4:	04000130 	streq	r0, [r0], #-304	; 0xfffffed0
 20003d8:	030013f8 	movweq	r1, #1016	; 0x3f8
 20003dc:	03001058 	movweq	r1, #88	; 0x58

020003e0 <OtherSettings>:
 20003e0:	b5f8      	push	{r3, r4, r5, r6, r7, lr}
 20003e2:	4ba2      	ldr	r3, [pc, #648]	; (200066c <OtherSettings+0x28c>)
 20003e4:	4645      	mov	r5, r8
 20003e6:	4698      	mov	r8, r3
 20003e8:	464e      	mov	r6, r9
 20003ea:	46de      	mov	lr, fp
 20003ec:	4657      	mov	r7, sl
 20003ee:	2300      	movs	r3, #0
 20003f0:	4642      	mov	r2, r8
 20003f2:	b5e0      	push	{r5, r6, r7, lr}
 20003f4:	2600      	movs	r6, #0
 20003f6:	7013      	strb	r3, [r2, #0]
 20003f8:	4c9d      	ldr	r4, [pc, #628]	; (2000670 <OtherSettings+0x290>)
 20003fa:	4d9e      	ldr	r5, [pc, #632]	; (2000674 <OtherSettings+0x294>)
 20003fc:	f001 f961 	bl	20016c2 <menu+0x2c6>
 2000400:	0630      	lsls	r0, r6, #24
 2000402:	0e00      	lsrs	r0, r0, #24
 2000404:	3601      	adds	r6, #1
 2000406:	f001 f95d 	bl	20016c4 <menu+0x2c8>
 200040a:	2e10      	cmp	r6, #16
 200040c:	d1f6      	bne.n	20003fc <OtherSettings+0x1c>
 200040e:	4b9a      	ldr	r3, [pc, #616]	; (2000678 <OtherSettings+0x298>)
 2000410:	f001 f956 	bl	20016c0 <menu+0x2c4>
 2000414:	2300      	movs	r3, #0
 2000416:	4f99      	ldr	r7, [pc, #612]	; (200067c <OtherSettings+0x29c>)
 2000418:	703b      	strb	r3, [r7, #0]
 200041a:	4b99      	ldr	r3, [pc, #612]	; (2000680 <OtherSettings+0x2a0>)
 200041c:	2100      	movs	r1, #0
 200041e:	4699      	mov	r9, r3
 2000420:	4e98      	ldr	r6, [pc, #608]	; (2000684 <OtherSettings+0x2a4>)
 2000422:	464a      	mov	r2, r9
 2000424:	008b      	lsls	r3, r1, #2
 2000426:	3107      	adds	r1, #7
 2000428:	0609      	lsls	r1, r1, #24
 200042a:	0e09      	lsrs	r1, r1, #24
 200042c:	58d2      	ldr	r2, [r2, r3]
 200042e:	2001      	movs	r0, #1
 2000430:	f001 f949 	bl	20016c6 <menu+0x2ca>
 2000434:	7839      	ldrb	r1, [r7, #0]
 2000436:	3101      	adds	r1, #1
 2000438:	0609      	lsls	r1, r1, #24
 200043a:	0e09      	lsrs	r1, r1, #24
 200043c:	7039      	strb	r1, [r7, #0]
 200043e:	2904      	cmp	r1, #4
 2000440:	d9ef      	bls.n	2000422 <OtherSettings+0x42>
 2000442:	4a91      	ldr	r2, [pc, #580]	; (2000688 <OtherSettings+0x2a8>)
 2000444:	2112      	movs	r1, #18
 2000446:	2000      	movs	r0, #0
 2000448:	f001 f93d 	bl	20016c6 <menu+0x2ca>
 200044c:	4a8f      	ldr	r2, [pc, #572]	; (200068c <OtherSettings+0x2ac>)
 200044e:	2113      	movs	r1, #19
 2000450:	2000      	movs	r0, #0
 2000452:	f001 f938 	bl	20016c6 <menu+0x2ca>
 2000456:	4b8e      	ldr	r3, [pc, #568]	; (2000690 <OtherSettings+0x2b0>)
 2000458:	2100      	movs	r1, #0
 200045a:	689a      	ldr	r2, [r3, #8]
 200045c:	2000      	movs	r0, #0
 200045e:	f001 f932 	bl	20016c6 <menu+0x2ca>
 2000462:	4b8c      	ldr	r3, [pc, #560]	; (2000694 <OtherSettings+0x2b4>)
 2000464:	469a      	mov	sl, r3
 2000466:	681b      	ldr	r3, [r3, #0]
 2000468:	7b9b      	ldrb	r3, [r3, #14]
 200046a:	4a8b      	ldr	r2, [pc, #556]	; (2000698 <OtherSettings+0x2b8>)
 200046c:	009b      	lsls	r3, r3, #2
 200046e:	58d2      	ldr	r2, [r2, r3]
 2000470:	2107      	movs	r1, #7
 2000472:	2008      	movs	r0, #8
 2000474:	f001 f927 	bl	20016c6 <menu+0x2ca>
 2000478:	4653      	mov	r3, sl
 200047a:	681b      	ldr	r3, [r3, #0]
 200047c:	7b5b      	ldrb	r3, [r3, #13]
 200047e:	4a87      	ldr	r2, [pc, #540]	; (200069c <OtherSettings+0x2bc>)
 2000480:	009b      	lsls	r3, r3, #2
 2000482:	58d2      	ldr	r2, [r2, r3]
 2000484:	2109      	movs	r1, #9
 2000486:	200f      	movs	r0, #15
 2000488:	f001 f91d 	bl	20016c6 <menu+0x2ca>
 200048c:	4653      	mov	r3, sl
 200048e:	681b      	ldr	r3, [r3, #0]
 2000490:	7adb      	ldrb	r3, [r3, #11]
 2000492:	4a81      	ldr	r2, [pc, #516]	; (2000698 <OtherSettings+0x2b8>)
 2000494:	009b      	lsls	r3, r3, #2
 2000496:	58d2      	ldr	r2, [r2, r3]
 2000498:	210a      	movs	r1, #10
 200049a:	200f      	movs	r0, #15
 200049c:	f001 f913 	bl	20016c6 <menu+0x2ca>
 20004a0:	4653      	mov	r3, sl
 20004a2:	681b      	ldr	r3, [r3, #0]
 20004a4:	7bdb      	ldrb	r3, [r3, #15]
 20004a6:	4a7e      	ldr	r2, [pc, #504]	; (20006a0 <OtherSettings+0x2c0>)
 20004a8:	009b      	lsls	r3, r3, #2
 20004aa:	58d2      	ldr	r2, [r2, r3]
 20004ac:	2108      	movs	r1, #8
 20004ae:	200c      	movs	r0, #12
 20004b0:	f001 f909 	bl	20016c6 <menu+0x2ca>
 20004b4:	2310      	movs	r3, #16
 20004b6:	4699      	mov	r9, r3
 20004b8:	f001 f903 	bl	20016c2 <menu+0x2c6>
 20004bc:	464b      	mov	r3, r9
 20004be:	0618      	lsls	r0, r3, #24
 20004c0:	0e00      	lsrs	r0, r0, #24
 20004c2:	f001 f8ff 	bl	20016c4 <menu+0x2c8>
 20004c6:	2301      	movs	r3, #1
 20004c8:	425b      	negs	r3, r3
 20004ca:	469c      	mov	ip, r3
 20004cc:	44e1      	add	r9, ip
 20004ce:	464b      	mov	r3, r9
 20004d0:	2b00      	cmp	r3, #0
 20004d2:	d1f1      	bne.n	20004b8 <OtherSettings+0xd8>
 20004d4:	4b73      	ldr	r3, [pc, #460]	; (20006a4 <OtherSettings+0x2c4>)
 20004d6:	4699      	mov	r9, r3
 20004d8:	881b      	ldrh	r3, [r3, #0]
 20004da:	079b      	lsls	r3, r3, #30
 20004dc:	d500      	bpl.n	20004e0 <OtherSettings+0x100>
 20004de:	e079      	b.n	20005d4 <OtherSettings+0x1f4>
 20004e0:	2300      	movs	r3, #0
 20004e2:	4699      	mov	r9, r3
 20004e4:	f001 f8ed 	bl	20016c2 <menu+0x2c6>
 20004e8:	464b      	mov	r3, r9
 20004ea:	0618      	lsls	r0, r3, #24
 20004ec:	0e00      	lsrs	r0, r0, #24
 20004ee:	f001 f8e9 	bl	20016c4 <menu+0x2c8>
 20004f2:	2301      	movs	r3, #1
 20004f4:	469c      	mov	ip, r3
 20004f6:	44e1      	add	r9, ip
 20004f8:	464b      	mov	r3, r9
 20004fa:	2b10      	cmp	r3, #16
 20004fc:	d1f2      	bne.n	20004e4 <OtherSettings+0x104>
 20004fe:	4b5e      	ldr	r3, [pc, #376]	; (2000678 <OtherSettings+0x298>)
 2000500:	f001 f8de 	bl	20016c0 <menu+0x2c4>
 2000504:	2300      	movs	r3, #0
 2000506:	703b      	strb	r3, [r7, #0]
 2000508:	4b67      	ldr	r3, [pc, #412]	; (20006a8 <OtherSettings+0x2c8>)
 200050a:	2100      	movs	r1, #0
 200050c:	4699      	mov	r9, r3
 200050e:	464a      	mov	r2, r9
 2000510:	008b      	lsls	r3, r1, #2
 2000512:	3107      	adds	r1, #7
 2000514:	0609      	lsls	r1, r1, #24
 2000516:	0e09      	lsrs	r1, r1, #24
 2000518:	58d2      	ldr	r2, [r2, r3]
 200051a:	2001      	movs	r0, #1
 200051c:	f001 f8d3 	bl	20016c6 <menu+0x2ca>
 2000520:	7839      	ldrb	r1, [r7, #0]
 2000522:	3101      	adds	r1, #1
 2000524:	0609      	lsls	r1, r1, #24
 2000526:	0e09      	lsrs	r1, r1, #24
 2000528:	7039      	strb	r1, [r7, #0]
 200052a:	2907      	cmp	r1, #7
 200052c:	d9ef      	bls.n	200050e <OtherSettings+0x12e>
 200052e:	4a56      	ldr	r2, [pc, #344]	; (2000688 <OtherSettings+0x2a8>)
 2000530:	2112      	movs	r1, #18
 2000532:	2000      	movs	r0, #0
 2000534:	f001 f8c7 	bl	20016c6 <menu+0x2ca>
 2000538:	4a54      	ldr	r2, [pc, #336]	; (200068c <OtherSettings+0x2ac>)
 200053a:	2113      	movs	r1, #19
 200053c:	2000      	movs	r0, #0
 200053e:	f001 f8c2 	bl	20016c6 <menu+0x2ca>
 2000542:	2300      	movs	r3, #0
 2000544:	4642      	mov	r2, r8
 2000546:	2610      	movs	r6, #16
 2000548:	7013      	strb	r3, [r2, #0]
 200054a:	f001 f8ba 	bl	20016c2 <menu+0x2c6>
 200054e:	0630      	lsls	r0, r6, #24
 2000550:	0e00      	lsrs	r0, r0, #24
 2000552:	3e01      	subs	r6, #1
 2000554:	f001 f8b6 	bl	20016c4 <menu+0x2c8>
 2000558:	2e00      	cmp	r6, #0
 200055a:	d1f6      	bne.n	200054a <OtherSettings+0x16a>
 200055c:	bc3c      	pop	{r2, r3, r4, r5}
 200055e:	4690      	mov	r8, r2
 2000560:	4699      	mov	r9, r3
 2000562:	46a2      	mov	sl, r4
 2000564:	46ab      	mov	fp, r5
 2000566:	bcf8      	pop	{r3, r4, r5, r6, r7}
 2000568:	bc01      	pop	{r0}
 200056a:	4700      	bx	r0
 200056c:	4643      	mov	r3, r8
 200056e:	7819      	ldrb	r1, [r3, #0]
 2000570:	3107      	adds	r1, #7
 2000572:	0609      	lsls	r1, r1, #24
 2000574:	0e09      	lsrs	r1, r1, #24
 2000576:	4a4d      	ldr	r2, [pc, #308]	; (20006ac <OtherSettings+0x2cc>)
 2000578:	2000      	movs	r0, #0
 200057a:	f001 f8a4 	bl	20016c6 <menu+0x2ca>
 200057e:	4643      	mov	r3, r8
 2000580:	7819      	ldrb	r1, [r3, #0]
 2000582:	2903      	cmp	r1, #3
 2000584:	d803      	bhi.n	200058e <OtherSettings+0x1ae>
 2000586:	3101      	adds	r1, #1
 2000588:	0609      	lsls	r1, r1, #24
 200058a:	0e09      	lsrs	r1, r1, #24
 200058c:	7019      	strb	r1, [r3, #0]
 200058e:	3107      	adds	r1, #7
 2000590:	0609      	lsls	r1, r1, #24
 2000592:	4a47      	ldr	r2, [pc, #284]	; (20006b0 <OtherSettings+0x2d0>)
 2000594:	0e09      	lsrs	r1, r1, #24
 2000596:	2000      	movs	r0, #0
 2000598:	f001 f895 	bl	20016c6 <menu+0x2ca>
 200059c:	4b41      	ldr	r3, [pc, #260]	; (20006a4 <OtherSettings+0x2c4>)
 200059e:	881a      	ldrh	r2, [r3, #0]
 20005a0:	0612      	lsls	r2, r2, #24
 20005a2:	d409      	bmi.n	20005b8 <OtherSettings+0x1d8>
 20005a4:	4699      	mov	r9, r3
 20005a6:	2380      	movs	r3, #128	; 0x80
 20005a8:	469b      	mov	fp, r3
 20005aa:	f001 f88a 	bl	20016c2 <menu+0x2c6>
 20005ae:	464b      	mov	r3, r9
 20005b0:	465a      	mov	r2, fp
 20005b2:	881b      	ldrh	r3, [r3, #0]
 20005b4:	421a      	tst	r2, r3
 20005b6:	d0f8      	beq.n	20005aa <OtherSettings+0x1ca>
 20005b8:	4b3a      	ldr	r3, [pc, #232]	; (20006a4 <OtherSettings+0x2c4>)
 20005ba:	881b      	ldrh	r3, [r3, #0]
 20005bc:	065b      	lsls	r3, r3, #25
 20005be:	d51c      	bpl.n	20005fa <OtherSettings+0x21a>
 20005c0:	4b38      	ldr	r3, [pc, #224]	; (20006a4 <OtherSettings+0x2c4>)
 20005c2:	881b      	ldrh	r3, [r3, #0]
 20005c4:	07db      	lsls	r3, r3, #31
 20005c6:	d542      	bpl.n	200064e <OtherSettings+0x26e>
 20005c8:	4b36      	ldr	r3, [pc, #216]	; (20006a4 <OtherSettings+0x2c4>)
 20005ca:	4699      	mov	r9, r3
 20005cc:	881b      	ldrh	r3, [r3, #0]
 20005ce:	079b      	lsls	r3, r3, #30
 20005d0:	d400      	bmi.n	20005d4 <OtherSettings+0x1f4>
 20005d2:	e785      	b.n	20004e0 <OtherSettings+0x100>
 20005d4:	f001 f875 	bl	20016c2 <menu+0x2c6>
 20005d8:	4643      	mov	r3, r8
 20005da:	7819      	ldrb	r1, [r3, #0]
 20005dc:	3107      	adds	r1, #7
 20005de:	0609      	lsls	r1, r1, #24
 20005e0:	0e09      	lsrs	r1, r1, #24
 20005e2:	4a33      	ldr	r2, [pc, #204]	; (20006b0 <OtherSettings+0x2d0>)
 20005e4:	2000      	movs	r0, #0
 20005e6:	f001 f86e 	bl	20016c6 <menu+0x2ca>
 20005ea:	464b      	mov	r3, r9
 20005ec:	881b      	ldrh	r3, [r3, #0]
 20005ee:	061b      	lsls	r3, r3, #24
 20005f0:	d5bc      	bpl.n	200056c <OtherSettings+0x18c>
 20005f2:	4b2c      	ldr	r3, [pc, #176]	; (20006a4 <OtherSettings+0x2c4>)
 20005f4:	881b      	ldrh	r3, [r3, #0]
 20005f6:	065b      	lsls	r3, r3, #25
 20005f8:	d4e2      	bmi.n	20005c0 <OtherSettings+0x1e0>
 20005fa:	4643      	mov	r3, r8
 20005fc:	7819      	ldrb	r1, [r3, #0]
 20005fe:	3107      	adds	r1, #7
 2000600:	0609      	lsls	r1, r1, #24
 2000602:	0e09      	lsrs	r1, r1, #24
 2000604:	4a29      	ldr	r2, [pc, #164]	; (20006ac <OtherSettings+0x2cc>)
 2000606:	2000      	movs	r0, #0
 2000608:	f001 f85d 	bl	20016c6 <menu+0x2ca>
 200060c:	4643      	mov	r3, r8
 200060e:	7819      	ldrb	r1, [r3, #0]
 2000610:	2900      	cmp	r1, #0
 2000612:	d003      	beq.n	200061c <OtherSettings+0x23c>
 2000614:	3901      	subs	r1, #1
 2000616:	0609      	lsls	r1, r1, #24
 2000618:	0e09      	lsrs	r1, r1, #24
 200061a:	7019      	strb	r1, [r3, #0]
 200061c:	3107      	adds	r1, #7
 200061e:	0609      	lsls	r1, r1, #24
 2000620:	4a23      	ldr	r2, [pc, #140]	; (20006b0 <OtherSettings+0x2d0>)
 2000622:	0e09      	lsrs	r1, r1, #24
 2000624:	2000      	movs	r0, #0
 2000626:	f001 f84e 	bl	20016c6 <menu+0x2ca>
 200062a:	4b1e      	ldr	r3, [pc, #120]	; (20006a4 <OtherSettings+0x2c4>)
 200062c:	881a      	ldrh	r2, [r3, #0]
 200062e:	0652      	lsls	r2, r2, #25
 2000630:	d4c6      	bmi.n	20005c0 <OtherSettings+0x1e0>
 2000632:	4699      	mov	r9, r3
 2000634:	2340      	movs	r3, #64	; 0x40
 2000636:	469b      	mov	fp, r3
 2000638:	f001 f843 	bl	20016c2 <menu+0x2c6>
 200063c:	464b      	mov	r3, r9
 200063e:	465a      	mov	r2, fp
 2000640:	881b      	ldrh	r3, [r3, #0]
 2000642:	421a      	tst	r2, r3
 2000644:	d0f8      	beq.n	2000638 <OtherSettings+0x258>
 2000646:	4b17      	ldr	r3, [pc, #92]	; (20006a4 <OtherSettings+0x2c4>)
 2000648:	881b      	ldrh	r3, [r3, #0]
 200064a:	07db      	lsls	r3, r3, #31
 200064c:	d4bc      	bmi.n	20005c8 <OtherSettings+0x1e8>
 200064e:	4643      	mov	r3, r8
 2000650:	781b      	ldrb	r3, [r3, #0]
 2000652:	2b00      	cmp	r3, #0
 2000654:	d02e      	beq.n	20006b4 <OtherSettings+0x2d4>
 2000656:	2b01      	cmp	r3, #1
 2000658:	d052      	beq.n	2000700 <OtherSettings+0x320>
 200065a:	2b02      	cmp	r3, #2
 200065c:	d073      	beq.n	2000746 <OtherSettings+0x366>
 200065e:	2b03      	cmp	r3, #3
 2000660:	d100      	bne.n	2000664 <OtherSettings+0x284>
 2000662:	e094      	b.n	200078e <OtherSettings+0x3ae>
 2000664:	2b04      	cmp	r3, #4
 2000666:	d1af      	bne.n	20005c8 <OtherSettings+0x1e8>
 2000668:	e73a      	b.n	20004e0 <OtherSettings+0x100>
 200066a:	46c0      	nop			; (mov r8, r8)
 200066c:	03001058 	movweq	r1, #88	; 0x58
 2000670:	02002509 	andeq	r2, r0, #37748736	; 0x2400000
 2000674:	02004641 	andeq	r4, r0, #68157440	; 0x4100000
 2000678:	020027ed 	andeq	r2, r0, #62128128	; 0x3b40000
 200067c:	0300105f 	movweq	r1, #95	; 0x5f
 2000680:	030013cc 	movweq	r1, #972	; 0x3cc
 2000684:	02002791 	andeq	r2, r0, #38010880	; 0x2440000
 2000688:	0200d24c 	andeq	sp, r0, #76, 4	; 0xc0000004
 200068c:	0200d23c 	andeq	sp, r0, #60, 4	; 0xc0000003
 2000690:	03001348 	movweq	r1, #840	; 0x348
 2000694:	030012a4 	movweq	r1, #676	; 0x2a4
 2000698:	030012bc 	movweq	r1, #700	; 0x2bc
 200069c:	030013ac 	movweq	r1, #940	; 0x3ac
 20006a0:	03001398 	movweq	r1, #920	; 0x398
 20006a4:	04000130 	streq	r0, [r0], #-304	; 0xfffffed0
 20006a8:	030013f8 	movweq	r1, #1016	; 0x3f8
 20006ac:	0200f438 	andeq	pc, r0, #56, 8	; 0x38000000
 20006b0:	0200f410 	andeq	pc, r0, #16, 8	; 0x10000000
 20006b4:	2201      	movs	r2, #1
 20006b6:	4948      	ldr	r1, [pc, #288]	; (20007d8 <OtherSettings+0x3f8>)
 20006b8:	700a      	strb	r2, [r1, #0]
 20006ba:	4652      	mov	r2, sl
 20006bc:	6811      	ldr	r1, [r2, #0]
 20006be:	7b8a      	ldrb	r2, [r1, #14]
 20006c0:	3201      	adds	r2, #1
 20006c2:	0612      	lsls	r2, r2, #24
 20006c4:	0e12      	lsrs	r2, r2, #24
 20006c6:	2a02      	cmp	r2, #2
 20006c8:	d900      	bls.n	20006cc <OtherSettings+0x2ec>
 20006ca:	e082      	b.n	20007d2 <OtherSettings+0x3f2>
 20006cc:	738a      	strb	r2, [r1, #14]
 20006ce:	4b43      	ldr	r3, [pc, #268]	; (20007dc <OtherSettings+0x3fc>)
 20006d0:	0092      	lsls	r2, r2, #2
 20006d2:	589a      	ldr	r2, [r3, r2]
 20006d4:	2107      	movs	r1, #7
 20006d6:	2008      	movs	r0, #8
 20006d8:	f000 fff5 	bl	20016c6 <menu+0x2ca>
 20006dc:	4b40      	ldr	r3, [pc, #256]	; (20007e0 <OtherSettings+0x400>)
 20006de:	881a      	ldrh	r2, [r3, #0]
 20006e0:	4699      	mov	r9, r3
 20006e2:	2301      	movs	r3, #1
 20006e4:	469b      	mov	fp, r3
 20006e6:	07d3      	lsls	r3, r2, #31
 20006e8:	d406      	bmi.n	20006f8 <OtherSettings+0x318>
 20006ea:	f000 ffea 	bl	20016c2 <menu+0x2c6>
 20006ee:	464b      	mov	r3, r9
 20006f0:	465a      	mov	r2, fp
 20006f2:	881b      	ldrh	r3, [r3, #0]
 20006f4:	421a      	tst	r2, r3
 20006f6:	d0f8      	beq.n	20006ea <OtherSettings+0x30a>
 20006f8:	4643      	mov	r3, r8
 20006fa:	781b      	ldrb	r3, [r3, #0]
 20006fc:	2b01      	cmp	r3, #1
 20006fe:	d1ac      	bne.n	200065a <OtherSettings+0x27a>
 2000700:	4653      	mov	r3, sl
 2000702:	681a      	ldr	r2, [r3, #0]
 2000704:	7bd3      	ldrb	r3, [r2, #15]
 2000706:	3301      	adds	r3, #1
 2000708:	061b      	lsls	r3, r3, #24
 200070a:	0e1b      	lsrs	r3, r3, #24
 200070c:	2b04      	cmp	r3, #4
 200070e:	d900      	bls.n	2000712 <OtherSettings+0x332>
 2000710:	2300      	movs	r3, #0
 2000712:	73d3      	strb	r3, [r2, #15]
 2000714:	4a33      	ldr	r2, [pc, #204]	; (20007e4 <OtherSettings+0x404>)
 2000716:	009b      	lsls	r3, r3, #2
 2000718:	58d2      	ldr	r2, [r2, r3]
 200071a:	2108      	movs	r1, #8
 200071c:	200c      	movs	r0, #12
 200071e:	f000 ffd2 	bl	20016c6 <menu+0x2ca>
 2000722:	4b2f      	ldr	r3, [pc, #188]	; (20007e0 <OtherSettings+0x400>)
 2000724:	881a      	ldrh	r2, [r3, #0]
 2000726:	4699      	mov	r9, r3
 2000728:	2301      	movs	r3, #1
 200072a:	469b      	mov	fp, r3
 200072c:	07d3      	lsls	r3, r2, #31
 200072e:	d406      	bmi.n	200073e <OtherSettings+0x35e>
 2000730:	f000 ffc7 	bl	20016c2 <menu+0x2c6>
 2000734:	464b      	mov	r3, r9
 2000736:	465a      	mov	r2, fp
 2000738:	881b      	ldrh	r3, [r3, #0]
 200073a:	421a      	tst	r2, r3
 200073c:	d0f8      	beq.n	2000730 <OtherSettings+0x350>
 200073e:	4643      	mov	r3, r8
 2000740:	781b      	ldrb	r3, [r3, #0]
 2000742:	2b02      	cmp	r3, #2
 2000744:	d18b      	bne.n	200065e <OtherSettings+0x27e>
 2000746:	4653      	mov	r3, sl
 2000748:	681a      	ldr	r2, [r3, #0]
 200074a:	7b53      	ldrb	r3, [r2, #13]
 200074c:	3301      	adds	r3, #1
 200074e:	061b      	lsls	r3, r3, #24
 2000750:	0e1b      	lsrs	r3, r3, #24
 2000752:	2b07      	cmp	r3, #7
 2000754:	d900      	bls.n	2000758 <OtherSettings+0x378>
 2000756:	2300      	movs	r3, #0
 2000758:	7353      	strb	r3, [r2, #13]
 200075a:	4a23      	ldr	r2, [pc, #140]	; (20007e8 <OtherSettings+0x408>)
 200075c:	009b      	lsls	r3, r3, #2
 200075e:	58d2      	ldr	r2, [r2, r3]
 2000760:	2109      	movs	r1, #9
 2000762:	200f      	movs	r0, #15
 2000764:	f000 ffaf 	bl	20016c6 <menu+0x2ca>
 2000768:	4b1d      	ldr	r3, [pc, #116]	; (20007e0 <OtherSettings+0x400>)
 200076a:	881a      	ldrh	r2, [r3, #0]
 200076c:	4699      	mov	r9, r3
 200076e:	2301      	movs	r3, #1
 2000770:	469b      	mov	fp, r3
 2000772:	07d3      	lsls	r3, r2, #31
 2000774:	d406      	bmi.n	2000784 <OtherSettings+0x3a4>
 2000776:	f000 ffa4 	bl	20016c2 <menu+0x2c6>
 200077a:	464b      	mov	r3, r9
 200077c:	465a      	mov	r2, fp
 200077e:	881b      	ldrh	r3, [r3, #0]
 2000780:	421a      	tst	r2, r3
 2000782:	d0f8      	beq.n	2000776 <OtherSettings+0x396>
 2000784:	4643      	mov	r3, r8
 2000786:	781b      	ldrb	r3, [r3, #0]
 2000788:	2b03      	cmp	r3, #3
 200078a:	d000      	beq.n	200078e <OtherSettings+0x3ae>
 200078c:	e76a      	b.n	2000664 <OtherSettings+0x284>
 200078e:	4653      	mov	r3, sl
 2000790:	681a      	ldr	r2, [r3, #0]
 2000792:	7ad3      	ldrb	r3, [r2, #11]
 2000794:	3301      	adds	r3, #1
 2000796:	061b      	lsls	r3, r3, #24
 2000798:	0e1b      	lsrs	r3, r3, #24
 200079a:	2b01      	cmp	r3, #1
 200079c:	d900      	bls.n	20007a0 <OtherSettings+0x3c0>
 200079e:	2300      	movs	r3, #0
 20007a0:	72d3      	strb	r3, [r2, #11]
 20007a2:	4a0e      	ldr	r2, [pc, #56]	; (20007dc <OtherSettings+0x3fc>)
 20007a4:	009b      	lsls	r3, r3, #2
 20007a6:	58d2      	ldr	r2, [r2, r3]
 20007a8:	210a      	movs	r1, #10
 20007aa:	200f      	movs	r0, #15
 20007ac:	f000 ff8b 	bl	20016c6 <menu+0x2ca>
 20007b0:	4b0b      	ldr	r3, [pc, #44]	; (20007e0 <OtherSettings+0x400>)
 20007b2:	881a      	ldrh	r2, [r3, #0]
 20007b4:	4699      	mov	r9, r3
 20007b6:	2301      	movs	r3, #1
 20007b8:	469b      	mov	fp, r3
 20007ba:	07d3      	lsls	r3, r2, #31
 20007bc:	d406      	bmi.n	20007cc <OtherSettings+0x3ec>
 20007be:	f000 ff80 	bl	20016c2 <menu+0x2c6>
 20007c2:	464b      	mov	r3, r9
 20007c4:	465a      	mov	r2, fp
 20007c6:	881b      	ldrh	r3, [r3, #0]
 20007c8:	421a      	tst	r2, r3
 20007ca:	d0f8      	beq.n	20007be <OtherSettings+0x3de>
 20007cc:	4643      	mov	r3, r8
 20007ce:	781b      	ldrb	r3, [r3, #0]
 20007d0:	e748      	b.n	2000664 <OtherSettings+0x284>
 20007d2:	738b      	strb	r3, [r1, #14]
 20007d4:	2200      	movs	r2, #0
 20007d6:	e77a      	b.n	20006ce <OtherSettings+0x2ee>
 20007d8:	03000200 	movweq	r0, #512	; 0x200
 20007dc:	030012bc 	movweq	r1, #700	; 0x2bc
 20007e0:	04000130 	streq	r0, [r0], #-304	; 0xfffffed0
 20007e4:	03001398 	movweq	r1, #920	; 0x398
 20007e8:	030013ac 	movweq	r1, #940	; 0x3ac

020007ec <DisplaySettings>:
 20007ec:	4b9b      	ldr	r3, [pc, #620]	; (2000a5c <DisplaySettings+0x270>)
 20007ee:	b5f0      	push	{r4, r5, r6, r7, lr}
 20007f0:	4645      	mov	r5, r8
 20007f2:	4698      	mov	r8, r3
 20007f4:	464e      	mov	r6, r9
 20007f6:	46de      	mov	lr, fp
 20007f8:	4657      	mov	r7, sl
 20007fa:	2300      	movs	r3, #0
 20007fc:	4642      	mov	r2, r8
 20007fe:	b5e0      	push	{r5, r6, r7, lr}
 2000800:	2600      	movs	r6, #0
 2000802:	7013      	strb	r3, [r2, #0]
 2000804:	4c96      	ldr	r4, [pc, #600]	; (2000a60 <DisplaySettings+0x274>)
 2000806:	4d97      	ldr	r5, [pc, #604]	; (2000a64 <DisplaySettings+0x278>)
 2000808:	b083      	sub	sp, #12
 200080a:	f000 ff5a 	bl	20016c2 <menu+0x2c6>
 200080e:	0630      	lsls	r0, r6, #24
 2000810:	0e00      	lsrs	r0, r0, #24
 2000812:	3601      	adds	r6, #1
 2000814:	f000 ff56 	bl	20016c4 <menu+0x2c8>
 2000818:	2e10      	cmp	r6, #16
 200081a:	d1f6      	bne.n	200080a <DisplaySettings+0x1e>
 200081c:	4b92      	ldr	r3, [pc, #584]	; (2000a68 <DisplaySettings+0x27c>)
 200081e:	f000 ff4f 	bl	20016c0 <menu+0x2c4>
 2000822:	2300      	movs	r3, #0
 2000824:	4f91      	ldr	r7, [pc, #580]	; (2000a6c <DisplaySettings+0x280>)
 2000826:	703b      	strb	r3, [r7, #0]
 2000828:	4b91      	ldr	r3, [pc, #580]	; (2000a70 <DisplaySettings+0x284>)
 200082a:	2100      	movs	r1, #0
 200082c:	4699      	mov	r9, r3
 200082e:	4e91      	ldr	r6, [pc, #580]	; (2000a74 <DisplaySettings+0x288>)
 2000830:	464a      	mov	r2, r9
 2000832:	008b      	lsls	r3, r1, #2
 2000834:	3107      	adds	r1, #7
 2000836:	0609      	lsls	r1, r1, #24
 2000838:	0e09      	lsrs	r1, r1, #24
 200083a:	58d2      	ldr	r2, [r2, r3]
 200083c:	2001      	movs	r0, #1
 200083e:	f000 ff42 	bl	20016c6 <menu+0x2ca>
 2000842:	7839      	ldrb	r1, [r7, #0]
 2000844:	3101      	adds	r1, #1
 2000846:	0609      	lsls	r1, r1, #24
 2000848:	0e09      	lsrs	r1, r1, #24
 200084a:	7039      	strb	r1, [r7, #0]
 200084c:	2903      	cmp	r1, #3
 200084e:	d9ef      	bls.n	2000830 <DisplaySettings+0x44>
 2000850:	4a89      	ldr	r2, [pc, #548]	; (2000a78 <DisplaySettings+0x28c>)
 2000852:	2112      	movs	r1, #18
 2000854:	2000      	movs	r0, #0
 2000856:	f000 ff36 	bl	20016c6 <menu+0x2ca>
 200085a:	4a88      	ldr	r2, [pc, #544]	; (2000a7c <DisplaySettings+0x290>)
 200085c:	2113      	movs	r1, #19
 200085e:	2000      	movs	r0, #0
 2000860:	f000 ff31 	bl	20016c6 <menu+0x2ca>
 2000864:	4b86      	ldr	r3, [pc, #536]	; (2000a80 <DisplaySettings+0x294>)
 2000866:	2100      	movs	r1, #0
 2000868:	685a      	ldr	r2, [r3, #4]
 200086a:	2000      	movs	r0, #0
 200086c:	f000 ff2b 	bl	20016c6 <menu+0x2ca>
 2000870:	4b84      	ldr	r3, [pc, #528]	; (2000a84 <DisplaySettings+0x298>)
 2000872:	681b      	ldr	r3, [r3, #0]
 2000874:	9301      	str	r3, [sp, #4]
 2000876:	7a9b      	ldrb	r3, [r3, #10]
 2000878:	4a83      	ldr	r2, [pc, #524]	; (2000a88 <DisplaySettings+0x29c>)
 200087a:	009b      	lsls	r3, r3, #2
 200087c:	58d2      	ldr	r2, [r2, r3]
 200087e:	2107      	movs	r1, #7
 2000880:	200a      	movs	r0, #10
 2000882:	f000 ff20 	bl	20016c6 <menu+0x2ca>
 2000886:	4b7f      	ldr	r3, [pc, #508]	; (2000a84 <DisplaySettings+0x298>)
 2000888:	681b      	ldr	r3, [r3, #0]
 200088a:	9301      	str	r3, [sp, #4]
 200088c:	7a5b      	ldrb	r3, [r3, #9]
 200088e:	4a7f      	ldr	r2, [pc, #508]	; (2000a8c <DisplaySettings+0x2a0>)
 2000890:	009b      	lsls	r3, r3, #2
 2000892:	58d2      	ldr	r2, [r2, r3]
 2000894:	2108      	movs	r1, #8
 2000896:	200d      	movs	r0, #13
 2000898:	f000 ff15 	bl	20016c6 <menu+0x2ca>
 200089c:	4b79      	ldr	r3, [pc, #484]	; (2000a84 <DisplaySettings+0x298>)
 200089e:	681b      	ldr	r3, [r3, #0]
 20008a0:	9301      	str	r3, [sp, #4]
 20008a2:	7b1b      	ldrb	r3, [r3, #12]
 20008a4:	4a7a      	ldr	r2, [pc, #488]	; (2000a90 <DisplaySettings+0x2a4>)
 20008a6:	009b      	lsls	r3, r3, #2
 20008a8:	58d2      	ldr	r2, [r2, r3]
 20008aa:	2109      	movs	r1, #9
 20008ac:	200e      	movs	r0, #14
 20008ae:	f000 ff0a 	bl	20016c6 <menu+0x2ca>
 20008b2:	2310      	movs	r3, #16
 20008b4:	4699      	mov	r9, r3
 20008b6:	f000 ff04 	bl	20016c2 <menu+0x2c6>
 20008ba:	464b      	mov	r3, r9
 20008bc:	0618      	lsls	r0, r3, #24
 20008be:	0e00      	lsrs	r0, r0, #24
 20008c0:	f000 ff00 	bl	20016c4 <menu+0x2c8>
 20008c4:	2301      	movs	r3, #1
 20008c6:	425b      	negs	r3, r3
 20008c8:	469c      	mov	ip, r3
 20008ca:	44e1      	add	r9, ip
 20008cc:	464b      	mov	r3, r9
 20008ce:	2b00      	cmp	r3, #0
 20008d0:	d1f1      	bne.n	20008b6 <DisplaySettings+0xca>
 20008d2:	4b70      	ldr	r3, [pc, #448]	; (2000a94 <DisplaySettings+0x2a8>)
 20008d4:	469a      	mov	sl, r3
 20008d6:	e007      	b.n	20008e8 <DisplaySettings+0xfc>
 20008d8:	4b6f      	ldr	r3, [pc, #444]	; (2000a98 <DisplaySettings+0x2ac>)
 20008da:	881b      	ldrh	r3, [r3, #0]
 20008dc:	065b      	lsls	r3, r3, #25
 20008de:	d53f      	bpl.n	2000960 <DisplaySettings+0x174>
 20008e0:	4b6d      	ldr	r3, [pc, #436]	; (2000a98 <DisplaySettings+0x2ac>)
 20008e2:	881b      	ldrh	r3, [r3, #0]
 20008e4:	07db      	lsls	r3, r3, #31
 20008e6:	d565      	bpl.n	20009b4 <DisplaySettings+0x1c8>
 20008e8:	4b6b      	ldr	r3, [pc, #428]	; (2000a98 <DisplaySettings+0x2ac>)
 20008ea:	4699      	mov	r9, r3
 20008ec:	881b      	ldrh	r3, [r3, #0]
 20008ee:	079b      	lsls	r3, r3, #30
 20008f0:	d56d      	bpl.n	20009ce <DisplaySettings+0x1e2>
 20008f2:	4643      	mov	r3, r8
 20008f4:	7819      	ldrb	r1, [r3, #0]
 20008f6:	3107      	adds	r1, #7
 20008f8:	0609      	lsls	r1, r1, #24
 20008fa:	0e09      	lsrs	r1, r1, #24
 20008fc:	4652      	mov	r2, sl
 20008fe:	2000      	movs	r0, #0
 2000900:	f000 fee1 	bl	20016c6 <menu+0x2ca>
 2000904:	464b      	mov	r3, r9
 2000906:	881b      	ldrh	r3, [r3, #0]
 2000908:	061b      	lsls	r3, r3, #24
 200090a:	d4e5      	bmi.n	20008d8 <DisplaySettings+0xec>
 200090c:	4643      	mov	r3, r8
 200090e:	7819      	ldrb	r1, [r3, #0]
 2000910:	3107      	adds	r1, #7
 2000912:	0609      	lsls	r1, r1, #24
 2000914:	0e09      	lsrs	r1, r1, #24
 2000916:	4a61      	ldr	r2, [pc, #388]	; (2000a9c <DisplaySettings+0x2b0>)
 2000918:	2000      	movs	r0, #0
 200091a:	f000 fed4 	bl	20016c6 <menu+0x2ca>
 200091e:	4643      	mov	r3, r8
 2000920:	7819      	ldrb	r1, [r3, #0]
 2000922:	2902      	cmp	r1, #2
 2000924:	d803      	bhi.n	200092e <DisplaySettings+0x142>
 2000926:	3101      	adds	r1, #1
 2000928:	0609      	lsls	r1, r1, #24
 200092a:	0e09      	lsrs	r1, r1, #24
 200092c:	7019      	strb	r1, [r3, #0]
 200092e:	3107      	adds	r1, #7
 2000930:	0609      	lsls	r1, r1, #24
 2000932:	4652      	mov	r2, sl
 2000934:	0e09      	lsrs	r1, r1, #24
 2000936:	2000      	movs	r0, #0
 2000938:	f000 fec5 	bl	20016c6 <menu+0x2ca>
 200093c:	4b56      	ldr	r3, [pc, #344]	; (2000a98 <DisplaySettings+0x2ac>)
 200093e:	881a      	ldrh	r2, [r3, #0]
 2000940:	0612      	lsls	r2, r2, #24
 2000942:	d4c9      	bmi.n	20008d8 <DisplaySettings+0xec>
 2000944:	4699      	mov	r9, r3
 2000946:	2380      	movs	r3, #128	; 0x80
 2000948:	469b      	mov	fp, r3
 200094a:	f000 feba 	bl	20016c2 <menu+0x2c6>
 200094e:	464b      	mov	r3, r9
 2000950:	465a      	mov	r2, fp
 2000952:	881b      	ldrh	r3, [r3, #0]
 2000954:	421a      	tst	r2, r3
 2000956:	d0f8      	beq.n	200094a <DisplaySettings+0x15e>
 2000958:	4b4f      	ldr	r3, [pc, #316]	; (2000a98 <DisplaySettings+0x2ac>)
 200095a:	881b      	ldrh	r3, [r3, #0]
 200095c:	065b      	lsls	r3, r3, #25
 200095e:	d4bf      	bmi.n	20008e0 <DisplaySettings+0xf4>
 2000960:	4643      	mov	r3, r8
 2000962:	7819      	ldrb	r1, [r3, #0]
 2000964:	3107      	adds	r1, #7
 2000966:	0609      	lsls	r1, r1, #24
 2000968:	0e09      	lsrs	r1, r1, #24
 200096a:	4a4c      	ldr	r2, [pc, #304]	; (2000a9c <DisplaySettings+0x2b0>)
 200096c:	2000      	movs	r0, #0
 200096e:	f000 feaa 	bl	20016c6 <menu+0x2ca>
 2000972:	4643      	mov	r3, r8
 2000974:	7819      	ldrb	r1, [r3, #0]
 2000976:	2900      	cmp	r1, #0
 2000978:	d003      	beq.n	2000982 <DisplaySettings+0x196>
 200097a:	3901      	subs	r1, #1
 200097c:	0609      	lsls	r1, r1, #24
 200097e:	0e09      	lsrs	r1, r1, #24
 2000980:	7019      	strb	r1, [r3, #0]
 2000982:	3107      	adds	r1, #7
 2000984:	0609      	lsls	r1, r1, #24
 2000986:	4652      	mov	r2, sl
 2000988:	0e09      	lsrs	r1, r1, #24
 200098a:	2000      	movs	r0, #0
 200098c:	f000 fe9b 	bl	20016c6 <menu+0x2ca>
 2000990:	4b41      	ldr	r3, [pc, #260]	; (2000a98 <DisplaySettings+0x2ac>)
 2000992:	881a      	ldrh	r2, [r3, #0]
 2000994:	0652      	lsls	r2, r2, #25
 2000996:	d4a3      	bmi.n	20008e0 <DisplaySettings+0xf4>
 2000998:	4699      	mov	r9, r3
 200099a:	2340      	movs	r3, #64	; 0x40
 200099c:	469b      	mov	fp, r3
 200099e:	f000 fe90 	bl	20016c2 <menu+0x2c6>
 20009a2:	464b      	mov	r3, r9
 20009a4:	465a      	mov	r2, fp
 20009a6:	881b      	ldrh	r3, [r3, #0]
 20009a8:	421a      	tst	r2, r3
 20009aa:	d0f8      	beq.n	200099e <DisplaySettings+0x1b2>
 20009ac:	4b3a      	ldr	r3, [pc, #232]	; (2000a98 <DisplaySettings+0x2ac>)
 20009ae:	881b      	ldrh	r3, [r3, #0]
 20009b0:	07db      	lsls	r3, r3, #31
 20009b2:	d499      	bmi.n	20008e8 <DisplaySettings+0xfc>
 20009b4:	4643      	mov	r3, r8
 20009b6:	781b      	ldrb	r3, [r3, #0]
 20009b8:	2b00      	cmp	r3, #0
 20009ba:	d100      	bne.n	20009be <DisplaySettings+0x1d2>
 20009bc:	e072      	b.n	2000aa4 <DisplaySettings+0x2b8>
 20009be:	2b01      	cmp	r3, #1
 20009c0:	d100      	bne.n	20009c4 <DisplaySettings+0x1d8>
 20009c2:	e092      	b.n	2000aea <DisplaySettings+0x2fe>
 20009c4:	2b02      	cmp	r3, #2
 20009c6:	d100      	bne.n	20009ca <DisplaySettings+0x1de>
 20009c8:	e0b3      	b.n	2000b32 <DisplaySettings+0x346>
 20009ca:	2b03      	cmp	r3, #3
 20009cc:	d18c      	bne.n	20008e8 <DisplaySettings+0xfc>
 20009ce:	2300      	movs	r3, #0
 20009d0:	4699      	mov	r9, r3
 20009d2:	f000 fe76 	bl	20016c2 <menu+0x2c6>
 20009d6:	464b      	mov	r3, r9
 20009d8:	0618      	lsls	r0, r3, #24
 20009da:	0e00      	lsrs	r0, r0, #24
 20009dc:	f000 fe72 	bl	20016c4 <menu+0x2c8>
 20009e0:	2301      	movs	r3, #1
 20009e2:	469c      	mov	ip, r3
 20009e4:	44e1      	add	r9, ip
 20009e6:	464b      	mov	r3, r9
 20009e8:	2b10      	cmp	r3, #16
 20009ea:	d1f2      	bne.n	20009d2 <DisplaySettings+0x1e6>
 20009ec:	4b1e      	ldr	r3, [pc, #120]	; (2000a68 <DisplaySettings+0x27c>)
 20009ee:	f000 fe67 	bl	20016c0 <menu+0x2c4>
 20009f2:	2300      	movs	r3, #0
 20009f4:	703b      	strb	r3, [r7, #0]
 20009f6:	4b2a      	ldr	r3, [pc, #168]	; (2000aa0 <DisplaySettings+0x2b4>)
 20009f8:	2100      	movs	r1, #0
 20009fa:	4699      	mov	r9, r3
 20009fc:	464a      	mov	r2, r9
 20009fe:	008b      	lsls	r3, r1, #2
 2000a00:	3107      	adds	r1, #7
 2000a02:	0609      	lsls	r1, r1, #24
 2000a04:	0e09      	lsrs	r1, r1, #24
 2000a06:	58d2      	ldr	r2, [r2, r3]
 2000a08:	2001      	movs	r0, #1
 2000a0a:	f000 fe5c 	bl	20016c6 <menu+0x2ca>
 2000a0e:	7839      	ldrb	r1, [r7, #0]
 2000a10:	3101      	adds	r1, #1
 2000a12:	0609      	lsls	r1, r1, #24
 2000a14:	0e09      	lsrs	r1, r1, #24
 2000a16:	7039      	strb	r1, [r7, #0]
 2000a18:	2907      	cmp	r1, #7
 2000a1a:	d9ef      	bls.n	20009fc <DisplaySettings+0x210>
 2000a1c:	4a16      	ldr	r2, [pc, #88]	; (2000a78 <DisplaySettings+0x28c>)
 2000a1e:	2112      	movs	r1, #18
 2000a20:	2000      	movs	r0, #0
 2000a22:	f000 fe50 	bl	20016c6 <menu+0x2ca>
 2000a26:	4a15      	ldr	r2, [pc, #84]	; (2000a7c <DisplaySettings+0x290>)
 2000a28:	2113      	movs	r1, #19
 2000a2a:	2000      	movs	r0, #0
 2000a2c:	f000 fe4b 	bl	20016c6 <menu+0x2ca>
 2000a30:	2300      	movs	r3, #0
 2000a32:	4642      	mov	r2, r8
 2000a34:	2610      	movs	r6, #16
 2000a36:	7013      	strb	r3, [r2, #0]
 2000a38:	f000 fe43 	bl	20016c2 <menu+0x2c6>
 2000a3c:	0630      	lsls	r0, r6, #24
 2000a3e:	0e00      	lsrs	r0, r0, #24
 2000a40:	3e01      	subs	r6, #1
 2000a42:	f000 fe3f 	bl	20016c4 <menu+0x2c8>
 2000a46:	2e00      	cmp	r6, #0
 2000a48:	d1f6      	bne.n	2000a38 <DisplaySettings+0x24c>
 2000a4a:	b003      	add	sp, #12
 2000a4c:	bc3c      	pop	{r2, r3, r4, r5}
 2000a4e:	4690      	mov	r8, r2
 2000a50:	4699      	mov	r9, r3
 2000a52:	46a2      	mov	sl, r4
 2000a54:	46ab      	mov	fp, r5
 2000a56:	bcf0      	pop	{r4, r5, r6, r7}
 2000a58:	bc01      	pop	{r0}
 2000a5a:	4700      	bx	r0
 2000a5c:	03001058 	movweq	r1, #88	; 0x58
 2000a60:	02002509 	andeq	r2, r0, #37748736	; 0x2400000
 2000a64:	02004641 	andeq	r4, r0, #68157440	; 0x4100000
 2000a68:	020027ed 	andeq	r2, r0, #62128128	; 0x3b40000
 2000a6c:	0300105f 	movweq	r1, #95	; 0x5f
 2000a70:	030013e0 	movweq	r1, #992	; 0x3e0
 2000a74:	02002791 	andeq	r2, r0, #38010880	; 0x2440000
 2000a78:	0200d24c 	andeq	sp, r0, #76, 4	; 0xc0000004
 2000a7c:	0200d23c 	andeq	sp, r0, #60, 4	; 0xc0000003
 2000a80:	03001348 	movweq	r1, #840	; 0x348
 2000a84:	030012a4 	movweq	r1, #676	; 0x2a4
 2000a88:	030012c8 	movweq	r1, #712	; 0x2c8
 2000a8c:	030012a8 	movweq	r1, #680	; 0x2a8
 2000a90:	030012bc 	movweq	r1, #700	; 0x2bc
 2000a94:	0200f410 	andeq	pc, r0, #16, 8	; 0x10000000
 2000a98:	04000130 	streq	r0, [r0], #-304	; 0xfffffed0
 2000a9c:	0200f438 	andeq	pc, r0, #56, 8	; 0x38000000
 2000aa0:	030013f8 	movweq	r1, #1016	; 0x3f8
 2000aa4:	4a37      	ldr	r2, [pc, #220]	; (2000b84 <DisplaySettings+0x398>)
 2000aa6:	6811      	ldr	r1, [r2, #0]
 2000aa8:	7a8a      	ldrb	r2, [r1, #10]
 2000aaa:	3201      	adds	r2, #1
 2000aac:	0612      	lsls	r2, r2, #24
 2000aae:	0e12      	lsrs	r2, r2, #24
 2000ab0:	2a06      	cmp	r2, #6
 2000ab2:	d863      	bhi.n	2000b7c <DisplaySettings+0x390>
 2000ab4:	728a      	strb	r2, [r1, #10]
 2000ab6:	4b34      	ldr	r3, [pc, #208]	; (2000b88 <DisplaySettings+0x39c>)
 2000ab8:	0092      	lsls	r2, r2, #2
 2000aba:	589a      	ldr	r2, [r3, r2]
 2000abc:	2107      	movs	r1, #7
 2000abe:	200a      	movs	r0, #10
 2000ac0:	f000 fe01 	bl	20016c6 <menu+0x2ca>
 2000ac4:	4b31      	ldr	r3, [pc, #196]	; (2000b8c <DisplaySettings+0x3a0>)
 2000ac6:	881a      	ldrh	r2, [r3, #0]
 2000ac8:	4699      	mov	r9, r3
 2000aca:	2301      	movs	r3, #1
 2000acc:	469b      	mov	fp, r3
 2000ace:	07d3      	lsls	r3, r2, #31
 2000ad0:	d406      	bmi.n	2000ae0 <DisplaySettings+0x2f4>
 2000ad2:	f000 fdf6 	bl	20016c2 <menu+0x2c6>
 2000ad6:	464b      	mov	r3, r9
 2000ad8:	465a      	mov	r2, fp
 2000ada:	881b      	ldrh	r3, [r3, #0]
 2000adc:	421a      	tst	r2, r3
 2000ade:	d0f8      	beq.n	2000ad2 <DisplaySettings+0x2e6>
 2000ae0:	4643      	mov	r3, r8
 2000ae2:	781b      	ldrb	r3, [r3, #0]
 2000ae4:	2b01      	cmp	r3, #1
 2000ae6:	d000      	beq.n	2000aea <DisplaySettings+0x2fe>
 2000ae8:	e76c      	b.n	20009c4 <DisplaySettings+0x1d8>
 2000aea:	4b26      	ldr	r3, [pc, #152]	; (2000b84 <DisplaySettings+0x398>)
 2000aec:	681a      	ldr	r2, [r3, #0]
 2000aee:	7a53      	ldrb	r3, [r2, #9]
 2000af0:	3301      	adds	r3, #1
 2000af2:	061b      	lsls	r3, r3, #24
 2000af4:	0e1b      	lsrs	r3, r3, #24
 2000af6:	2b04      	cmp	r3, #4
 2000af8:	d900      	bls.n	2000afc <DisplaySettings+0x310>
 2000afa:	2300      	movs	r3, #0
 2000afc:	7253      	strb	r3, [r2, #9]
 2000afe:	4a24      	ldr	r2, [pc, #144]	; (2000b90 <DisplaySettings+0x3a4>)
 2000b00:	009b      	lsls	r3, r3, #2
 2000b02:	58d2      	ldr	r2, [r2, r3]
 2000b04:	2108      	movs	r1, #8
 2000b06:	200d      	movs	r0, #13
 2000b08:	f000 fddd 	bl	20016c6 <menu+0x2ca>
 2000b0c:	4b1f      	ldr	r3, [pc, #124]	; (2000b8c <DisplaySettings+0x3a0>)
 2000b0e:	881a      	ldrh	r2, [r3, #0]
 2000b10:	4699      	mov	r9, r3
 2000b12:	2301      	movs	r3, #1
 2000b14:	469b      	mov	fp, r3
 2000b16:	07d3      	lsls	r3, r2, #31
 2000b18:	d406      	bmi.n	2000b28 <DisplaySettings+0x33c>
 2000b1a:	f000 fdd2 	bl	20016c2 <menu+0x2c6>
 2000b1e:	464b      	mov	r3, r9
 2000b20:	465a      	mov	r2, fp
 2000b22:	881b      	ldrh	r3, [r3, #0]
 2000b24:	421a      	tst	r2, r3
 2000b26:	d0f8      	beq.n	2000b1a <DisplaySettings+0x32e>
 2000b28:	4643      	mov	r3, r8
 2000b2a:	781b      	ldrb	r3, [r3, #0]
 2000b2c:	2b02      	cmp	r3, #2
 2000b2e:	d000      	beq.n	2000b32 <DisplaySettings+0x346>
 2000b30:	e74b      	b.n	20009ca <DisplaySettings+0x1de>
 2000b32:	4a18      	ldr	r2, [pc, #96]	; (2000b94 <DisplaySettings+0x3a8>)
 2000b34:	3b01      	subs	r3, #1
 2000b36:	7013      	strb	r3, [r2, #0]
 2000b38:	4b12      	ldr	r3, [pc, #72]	; (2000b84 <DisplaySettings+0x398>)
 2000b3a:	681a      	ldr	r2, [r3, #0]
 2000b3c:	7b13      	ldrb	r3, [r2, #12]
 2000b3e:	3301      	adds	r3, #1
 2000b40:	061b      	lsls	r3, r3, #24
 2000b42:	0e1b      	lsrs	r3, r3, #24
 2000b44:	2b01      	cmp	r3, #1
 2000b46:	d900      	bls.n	2000b4a <DisplaySettings+0x35e>
 2000b48:	2300      	movs	r3, #0
 2000b4a:	7313      	strb	r3, [r2, #12]
 2000b4c:	4a12      	ldr	r2, [pc, #72]	; (2000b98 <DisplaySettings+0x3ac>)
 2000b4e:	009b      	lsls	r3, r3, #2
 2000b50:	58d2      	ldr	r2, [r2, r3]
 2000b52:	2109      	movs	r1, #9
 2000b54:	200e      	movs	r0, #14
 2000b56:	f000 fdb6 	bl	20016c6 <menu+0x2ca>
 2000b5a:	4b0c      	ldr	r3, [pc, #48]	; (2000b8c <DisplaySettings+0x3a0>)
 2000b5c:	881a      	ldrh	r2, [r3, #0]
 2000b5e:	4699      	mov	r9, r3
 2000b60:	2301      	movs	r3, #1
 2000b62:	469b      	mov	fp, r3
 2000b64:	07d3      	lsls	r3, r2, #31
 2000b66:	d406      	bmi.n	2000b76 <DisplaySettings+0x38a>
 2000b68:	f000 fdab 	bl	20016c2 <menu+0x2c6>
 2000b6c:	464b      	mov	r3, r9
 2000b6e:	465a      	mov	r2, fp
 2000b70:	881b      	ldrh	r3, [r3, #0]
 2000b72:	421a      	tst	r2, r3
 2000b74:	d0f8      	beq.n	2000b68 <DisplaySettings+0x37c>
 2000b76:	4643      	mov	r3, r8
 2000b78:	781b      	ldrb	r3, [r3, #0]
 2000b7a:	e726      	b.n	20009ca <DisplaySettings+0x1de>
 2000b7c:	728b      	strb	r3, [r1, #10]
 2000b7e:	2200      	movs	r2, #0
 2000b80:	e799      	b.n	2000ab6 <DisplaySettings+0x2ca>
 2000b82:	46c0      	nop			; (mov r8, r8)
 2000b84:	030012a4 	movweq	r1, #676	; 0x2a4
 2000b88:	030012c8 	movweq	r1, #712	; 0x2c8
 2000b8c:	04000130 	streq	r0, [r0], #-304	; 0xfffffed0
 2000b90:	030012a8 	movweq	r1, #680	; 0x2a8
 2000b94:	03000200 	movweq	r0, #512	; 0x200
 2000b98:	030012bc 	movweq	r1, #700	; 0x2bc

02000b9c <RequestExit>:
 2000b9c:	b510      	push	{r4, lr}
 2000b9e:	2002      	movs	r0, #2
 2000ba0:	4b0e      	ldr	r3, [pc, #56]	; (2000bdc <RequestExit+0x40>)
 2000ba2:	f000 fd8d 	bl	20016c0 <menu+0x2c4>
 2000ba6:	2000      	movs	r0, #0
 2000ba8:	4b0d      	ldr	r3, [pc, #52]	; (2000be0 <RequestExit+0x44>)
 2000baa:	f000 fd89 	bl	20016c0 <menu+0x2c4>
 2000bae:	4b0d      	ldr	r3, [pc, #52]	; (2000be4 <RequestExit+0x48>)
 2000bb0:	f000 fd86 	bl	20016c0 <menu+0x2c4>
 2000bb4:	2002      	movs	r0, #2
 2000bb6:	4b0c      	ldr	r3, [pc, #48]	; (2000be8 <RequestExit+0x4c>)
 2000bb8:	f000 fd82 	bl	20016c0 <menu+0x2c4>
 2000bbc:	4a0b      	ldr	r2, [pc, #44]	; (2000bec <RequestExit+0x50>)
 2000bbe:	2100      	movs	r1, #0
 2000bc0:	2000      	movs	r0, #0
 2000bc2:	4b0b      	ldr	r3, [pc, #44]	; (2000bf0 <RequestExit+0x54>)
 2000bc4:	f000 fd7c 	bl	20016c0 <menu+0x2c4>
 2000bc8:	203c      	movs	r0, #60	; 0x3c
 2000bca:	4b0a      	ldr	r3, [pc, #40]	; (2000bf4 <RequestExit+0x58>)
 2000bcc:	f000 fd78 	bl	20016c0 <menu+0x2c4>
 2000bd0:	4b09      	ldr	r3, [pc, #36]	; (2000bf8 <RequestExit+0x5c>)
 2000bd2:	f000 fd75 	bl	20016c0 <menu+0x2c4>
 2000bd6:	bc10      	pop	{r4}
 2000bd8:	bc01      	pop	{r0}
 2000bda:	4700      	bx	r0
 2000bdc:	0200270d 	andeq	r2, r0, #3407872	; 0x340000
 2000be0:	020033bd 	andeq	r3, r0, #-201326590	; 0xf4000002
 2000be4:	020027ed 	andeq	r2, r0, #62128128	; 0x3b40000
 2000be8:	02003411 	andeq	r3, r0, #285212672	; 0x11000000
 2000bec:	0200d1c8 	andeq	sp, r0, #200, 2	; 0x32
 2000bf0:	02002791 	andeq	r2, r0, #38010880	; 0x2440000
 2000bf4:	02003fed 	andeq	r3, r0, #948	; 0x3b4
 2000bf8:	020041c9 	andeq	r4, r0, #1073741874	; 0x40000032

02000bfc <debugger>:
 2000bfc:	4770      	bx	lr
 2000bfe:	46c0      	nop			; (mov r8, r8)

02000c00 <drawclock>:
 2000c00:	b530      	push	{r4, r5, lr}
 2000c02:	b089      	sub	sp, #36	; 0x24
 2000c04:	466c      	mov	r4, sp
 2000c06:	0022      	movs	r2, r4
 2000c08:	4b17      	ldr	r3, [pc, #92]	; (2000c68 <drawclock+0x68>)
 2000c0a:	cb23      	ldmia	r3!, {r0, r1, r5}
 2000c0c:	c223      	stmia	r2!, {r0, r1, r5}
 2000c0e:	cb23      	ldmia	r3!, {r0, r1, r5}
 2000c10:	c223      	stmia	r2!, {r0, r1, r5}
 2000c12:	6819      	ldr	r1, [r3, #0]
 2000c14:	6011      	str	r1, [r2, #0]
 2000c16:	791b      	ldrb	r3, [r3, #4]
 2000c18:	7113      	strb	r3, [r2, #4]
 2000c1a:	4b14      	ldr	r3, [pc, #80]	; (2000c6c <drawclock+0x6c>)
 2000c1c:	f000 fd50 	bl	20016c0 <menu+0x2c4>
 2000c20:	0683      	lsls	r3, r0, #26
 2000c22:	0f9b      	lsrs	r3, r3, #30
 2000c24:	3330      	adds	r3, #48	; 0x30
 2000c26:	7523      	strb	r3, [r4, #20]
 2000c28:	230f      	movs	r3, #15
 2000c2a:	001a      	movs	r2, r3
 2000c2c:	4002      	ands	r2, r0
 2000c2e:	3230      	adds	r2, #48	; 0x30
 2000c30:	7562      	strb	r2, [r4, #21]
 2000c32:	1302      	asrs	r2, r0, #12
 2000c34:	401a      	ands	r2, r3
 2000c36:	3230      	adds	r2, #48	; 0x30
 2000c38:	75e2      	strb	r2, [r4, #23]
 2000c3a:	1202      	asrs	r2, r0, #8
 2000c3c:	401a      	ands	r2, r3
 2000c3e:	3230      	adds	r2, #48	; 0x30
 2000c40:	7622      	strb	r2, [r4, #24]
 2000c42:	1502      	asrs	r2, r0, #20
 2000c44:	1400      	asrs	r0, r0, #16
 2000c46:	401a      	ands	r2, r3
 2000c48:	4003      	ands	r3, r0
 2000c4a:	3230      	adds	r2, #48	; 0x30
 2000c4c:	3330      	adds	r3, #48	; 0x30
 2000c4e:	76a2      	strb	r2, [r4, #26]
 2000c50:	76e3      	strb	r3, [r4, #27]
 2000c52:	0022      	movs	r2, r4
 2000c54:	2100      	movs	r1, #0
 2000c56:	2002      	movs	r0, #2
 2000c58:	4b05      	ldr	r3, [pc, #20]	; (2000c70 <drawclock+0x70>)
 2000c5a:	f000 fd31 	bl	20016c0 <menu+0x2c4>
 2000c5e:	b009      	add	sp, #36	; 0x24
 2000c60:	bc30      	pop	{r4, r5}
 2000c62:	bc01      	pop	{r0}
 2000c64:	4700      	bx	r0
 2000c66:	46c0      	nop			; (mov r8, r8)
 2000c68:	0200f414 	andeq	pc, r0, #20, 8	; 0x14000000
 2000c6c:	020040c9 	andeq	r4, r0, #201	; 0xc9
 2000c70:	02002791 	andeq	r2, r0, #38010880	; 0x2440000

02000c74 <RemapButtons>:
 2000c74:	b5f8      	push	{r3, r4, r5, r6, r7, lr}
 2000c76:	4bb6      	ldr	r3, [pc, #728]	; (2000f50 <RemapButtons+0x2dc>)
 2000c78:	464e      	mov	r6, r9
 2000c7a:	4699      	mov	r9, r3
 2000c7c:	4645      	mov	r5, r8
 2000c7e:	46de      	mov	lr, fp
 2000c80:	4657      	mov	r7, sl
 2000c82:	2300      	movs	r3, #0
 2000c84:	464a      	mov	r2, r9
 2000c86:	b5e0      	push	{r5, r6, r7, lr}
 2000c88:	2500      	movs	r5, #0
 2000c8a:	7013      	strb	r3, [r2, #0]
 2000c8c:	4cb1      	ldr	r4, [pc, #708]	; (2000f54 <RemapButtons+0x2e0>)
 2000c8e:	4eb2      	ldr	r6, [pc, #712]	; (2000f58 <RemapButtons+0x2e4>)
 2000c90:	f000 fd17 	bl	20016c2 <menu+0x2c6>
 2000c94:	0628      	lsls	r0, r5, #24
 2000c96:	0e00      	lsrs	r0, r0, #24
 2000c98:	3501      	adds	r5, #1
 2000c9a:	f000 fd14 	bl	20016c6 <menu+0x2ca>
 2000c9e:	2d10      	cmp	r5, #16
 2000ca0:	d1f6      	bne.n	2000c90 <RemapButtons+0x1c>
 2000ca2:	4bae      	ldr	r3, [pc, #696]	; (2000f5c <RemapButtons+0x2e8>)
 2000ca4:	f000 fd0c 	bl	20016c0 <menu+0x2c4>
 2000ca8:	4bad      	ldr	r3, [pc, #692]	; (2000f60 <RemapButtons+0x2ec>)
 2000caa:	4698      	mov	r8, r3
 2000cac:	2300      	movs	r3, #0
 2000cae:	4642      	mov	r2, r8
 2000cb0:	2100      	movs	r1, #0
 2000cb2:	7013      	strb	r3, [r2, #0]
 2000cb4:	4dab      	ldr	r5, [pc, #684]	; (2000f64 <RemapButtons+0x2f0>)
 2000cb6:	4fac      	ldr	r7, [pc, #688]	; (2000f68 <RemapButtons+0x2f4>)
 2000cb8:	008b      	lsls	r3, r1, #2
 2000cba:	3107      	adds	r1, #7
 2000cbc:	0609      	lsls	r1, r1, #24
 2000cbe:	58ea      	ldr	r2, [r5, r3]
 2000cc0:	0e09      	lsrs	r1, r1, #24
 2000cc2:	2001      	movs	r0, #1
 2000cc4:	f000 fd00 	bl	20016c8 <menu+0x2cc>
 2000cc8:	4643      	mov	r3, r8
 2000cca:	7819      	ldrb	r1, [r3, #0]
 2000ccc:	3101      	adds	r1, #1
 2000cce:	0609      	lsls	r1, r1, #24
 2000cd0:	0e09      	lsrs	r1, r1, #24
 2000cd2:	7019      	strb	r1, [r3, #0]
 2000cd4:	2908      	cmp	r1, #8
 2000cd6:	d9ef      	bls.n	2000cb8 <RemapButtons+0x44>
 2000cd8:	4aa4      	ldr	r2, [pc, #656]	; (2000f6c <RemapButtons+0x2f8>)
 2000cda:	2112      	movs	r1, #18
 2000cdc:	2000      	movs	r0, #0
 2000cde:	f000 fcf3 	bl	20016c8 <menu+0x2cc>
 2000ce2:	4aa3      	ldr	r2, [pc, #652]	; (2000f70 <RemapButtons+0x2fc>)
 2000ce4:	2113      	movs	r1, #19
 2000ce6:	2000      	movs	r0, #0
 2000ce8:	f000 fcee 	bl	20016c8 <menu+0x2cc>
 2000cec:	4ba1      	ldr	r3, [pc, #644]	; (2000f74 <RemapButtons+0x300>)
 2000cee:	2100      	movs	r1, #0
 2000cf0:	695a      	ldr	r2, [r3, #20]
 2000cf2:	2000      	movs	r0, #0
 2000cf4:	f000 fce8 	bl	20016c8 <menu+0x2cc>
 2000cf8:	4b9f      	ldr	r3, [pc, #636]	; (2000f78 <RemapButtons+0x304>)
 2000cfa:	469b      	mov	fp, r3
 2000cfc:	681b      	ldr	r3, [r3, #0]
 2000cfe:	785b      	ldrb	r3, [r3, #1]
 2000d00:	4a9e      	ldr	r2, [pc, #632]	; (2000f7c <RemapButtons+0x308>)
 2000d02:	009b      	lsls	r3, r3, #2
 2000d04:	58d2      	ldr	r2, [r2, r3]
 2000d06:	2107      	movs	r1, #7
 2000d08:	2004      	movs	r0, #4
 2000d0a:	f000 fcdd 	bl	20016c8 <menu+0x2cc>
 2000d0e:	465b      	mov	r3, fp
 2000d10:	681b      	ldr	r3, [r3, #0]
 2000d12:	789b      	ldrb	r3, [r3, #2]
 2000d14:	4a99      	ldr	r2, [pc, #612]	; (2000f7c <RemapButtons+0x308>)
 2000d16:	009b      	lsls	r3, r3, #2
 2000d18:	58d2      	ldr	r2, [r2, r3]
 2000d1a:	2108      	movs	r1, #8
 2000d1c:	2004      	movs	r0, #4
 2000d1e:	f000 fcd3 	bl	20016c8 <menu+0x2cc>
 2000d22:	465b      	mov	r3, fp
 2000d24:	681b      	ldr	r3, [r3, #0]
 2000d26:	78db      	ldrb	r3, [r3, #3]
 2000d28:	4a94      	ldr	r2, [pc, #592]	; (2000f7c <RemapButtons+0x308>)
 2000d2a:	009b      	lsls	r3, r3, #2
 2000d2c:	58d2      	ldr	r2, [r2, r3]
 2000d2e:	2109      	movs	r1, #9
 2000d30:	2005      	movs	r0, #5
 2000d32:	f000 fcc9 	bl	20016c8 <menu+0x2cc>
 2000d36:	465b      	mov	r3, fp
 2000d38:	681b      	ldr	r3, [r3, #0]
 2000d3a:	791b      	ldrb	r3, [r3, #4]
 2000d3c:	4a8f      	ldr	r2, [pc, #572]	; (2000f7c <RemapButtons+0x308>)
 2000d3e:	009b      	lsls	r3, r3, #2
 2000d40:	58d2      	ldr	r2, [r2, r3]
 2000d42:	210a      	movs	r1, #10
 2000d44:	2007      	movs	r0, #7
 2000d46:	f000 fcbf 	bl	20016c8 <menu+0x2cc>
 2000d4a:	465b      	mov	r3, fp
 2000d4c:	681b      	ldr	r3, [r3, #0]
 2000d4e:	795b      	ldrb	r3, [r3, #5]
 2000d50:	4a8a      	ldr	r2, [pc, #552]	; (2000f7c <RemapButtons+0x308>)
 2000d52:	009b      	lsls	r3, r3, #2
 2000d54:	58d2      	ldr	r2, [r2, r3]
 2000d56:	210b      	movs	r1, #11
 2000d58:	2007      	movs	r0, #7
 2000d5a:	f000 fcb5 	bl	20016c8 <menu+0x2cc>
 2000d5e:	465b      	mov	r3, fp
 2000d60:	681b      	ldr	r3, [r3, #0]
 2000d62:	799b      	ldrb	r3, [r3, #6]
 2000d64:	4a85      	ldr	r2, [pc, #532]	; (2000f7c <RemapButtons+0x308>)
 2000d66:	009b      	lsls	r3, r3, #2
 2000d68:	58d2      	ldr	r2, [r2, r3]
 2000d6a:	210c      	movs	r1, #12
 2000d6c:	2008      	movs	r0, #8
 2000d6e:	f000 fcab 	bl	20016c8 <menu+0x2cc>
 2000d72:	465b      	mov	r3, fp
 2000d74:	681b      	ldr	r3, [r3, #0]
 2000d76:	79db      	ldrb	r3, [r3, #7]
 2000d78:	4a80      	ldr	r2, [pc, #512]	; (2000f7c <RemapButtons+0x308>)
 2000d7a:	009b      	lsls	r3, r3, #2
 2000d7c:	58d2      	ldr	r2, [r2, r3]
 2000d7e:	210d      	movs	r1, #13
 2000d80:	2009      	movs	r0, #9
 2000d82:	f000 fca1 	bl	20016c8 <menu+0x2cc>
 2000d86:	465b      	mov	r3, fp
 2000d88:	681b      	ldr	r3, [r3, #0]
 2000d8a:	7a1b      	ldrb	r3, [r3, #8]
 2000d8c:	4a7b      	ldr	r2, [pc, #492]	; (2000f7c <RemapButtons+0x308>)
 2000d8e:	009b      	lsls	r3, r3, #2
 2000d90:	58d2      	ldr	r2, [r2, r3]
 2000d92:	210e      	movs	r1, #14
 2000d94:	2008      	movs	r0, #8
 2000d96:	f000 fc97 	bl	20016c8 <menu+0x2cc>
 2000d9a:	2510      	movs	r5, #16
 2000d9c:	f000 fc91 	bl	20016c2 <menu+0x2c6>
 2000da0:	0628      	lsls	r0, r5, #24
 2000da2:	0e00      	lsrs	r0, r0, #24
 2000da4:	3d01      	subs	r5, #1
 2000da6:	f000 fc8e 	bl	20016c6 <menu+0x2ca>
 2000daa:	2d00      	cmp	r5, #0
 2000dac:	d1f6      	bne.n	2000d9c <RemapButtons+0x128>
 2000dae:	4d74      	ldr	r5, [pc, #464]	; (2000f80 <RemapButtons+0x30c>)
 2000db0:	e005      	b.n	2000dbe <RemapButtons+0x14a>
 2000db2:	882b      	ldrh	r3, [r5, #0]
 2000db4:	065b      	lsls	r3, r3, #25
 2000db6:	d538      	bpl.n	2000e2a <RemapButtons+0x1b6>
 2000db8:	882b      	ldrh	r3, [r5, #0]
 2000dba:	07db      	lsls	r3, r3, #31
 2000dbc:	d55b      	bpl.n	2000e76 <RemapButtons+0x202>
 2000dbe:	882b      	ldrh	r3, [r5, #0]
 2000dc0:	079b      	lsls	r3, r3, #30
 2000dc2:	d400      	bmi.n	2000dc6 <RemapButtons+0x152>
 2000dc4:	e080      	b.n	2000ec8 <RemapButtons+0x254>
 2000dc6:	464b      	mov	r3, r9
 2000dc8:	7819      	ldrb	r1, [r3, #0]
 2000dca:	3107      	adds	r1, #7
 2000dcc:	0609      	lsls	r1, r1, #24
 2000dce:	0e09      	lsrs	r1, r1, #24
 2000dd0:	4a6c      	ldr	r2, [pc, #432]	; (2000f84 <RemapButtons+0x310>)
 2000dd2:	2000      	movs	r0, #0
 2000dd4:	f000 fc78 	bl	20016c8 <menu+0x2cc>
 2000dd8:	882b      	ldrh	r3, [r5, #0]
 2000dda:	061b      	lsls	r3, r3, #24
 2000ddc:	d4e9      	bmi.n	2000db2 <RemapButtons+0x13e>
 2000dde:	464b      	mov	r3, r9
 2000de0:	7819      	ldrb	r1, [r3, #0]
 2000de2:	3107      	adds	r1, #7
 2000de4:	0609      	lsls	r1, r1, #24
 2000de6:	0e09      	lsrs	r1, r1, #24
 2000de8:	4a67      	ldr	r2, [pc, #412]	; (2000f88 <RemapButtons+0x314>)
 2000dea:	2000      	movs	r0, #0
 2000dec:	f000 fc6c 	bl	20016c8 <menu+0x2cc>
 2000df0:	464b      	mov	r3, r9
 2000df2:	7819      	ldrb	r1, [r3, #0]
 2000df4:	2907      	cmp	r1, #7
 2000df6:	d803      	bhi.n	2000e00 <RemapButtons+0x18c>
 2000df8:	3101      	adds	r1, #1
 2000dfa:	0609      	lsls	r1, r1, #24
 2000dfc:	0e09      	lsrs	r1, r1, #24
 2000dfe:	7019      	strb	r1, [r3, #0]
 2000e00:	3107      	adds	r1, #7
 2000e02:	0609      	lsls	r1, r1, #24
 2000e04:	0e09      	lsrs	r1, r1, #24
 2000e06:	4a5f      	ldr	r2, [pc, #380]	; (2000f84 <RemapButtons+0x310>)
 2000e08:	2000      	movs	r0, #0
 2000e0a:	f000 fc5d 	bl	20016c8 <menu+0x2cc>
 2000e0e:	882b      	ldrh	r3, [r5, #0]
 2000e10:	061b      	lsls	r3, r3, #24
 2000e12:	d4ce      	bmi.n	2000db2 <RemapButtons+0x13e>
 2000e14:	2380      	movs	r3, #128	; 0x80
 2000e16:	469a      	mov	sl, r3
 2000e18:	f000 fc53 	bl	20016c2 <menu+0x2c6>
 2000e1c:	4652      	mov	r2, sl
 2000e1e:	882b      	ldrh	r3, [r5, #0]
 2000e20:	421a      	tst	r2, r3
 2000e22:	d0f9      	beq.n	2000e18 <RemapButtons+0x1a4>
 2000e24:	882b      	ldrh	r3, [r5, #0]
 2000e26:	065b      	lsls	r3, r3, #25
 2000e28:	d4c6      	bmi.n	2000db8 <RemapButtons+0x144>
 2000e2a:	464b      	mov	r3, r9
 2000e2c:	7819      	ldrb	r1, [r3, #0]
 2000e2e:	3107      	adds	r1, #7
 2000e30:	0609      	lsls	r1, r1, #24
 2000e32:	0e09      	lsrs	r1, r1, #24
 2000e34:	4a54      	ldr	r2, [pc, #336]	; (2000f88 <RemapButtons+0x314>)
 2000e36:	2000      	movs	r0, #0
 2000e38:	f000 fc46 	bl	20016c8 <menu+0x2cc>
 2000e3c:	464b      	mov	r3, r9
 2000e3e:	7819      	ldrb	r1, [r3, #0]
 2000e40:	2900      	cmp	r1, #0
 2000e42:	d003      	beq.n	2000e4c <RemapButtons+0x1d8>
 2000e44:	3901      	subs	r1, #1
 2000e46:	0609      	lsls	r1, r1, #24
 2000e48:	0e09      	lsrs	r1, r1, #24
 2000e4a:	7019      	strb	r1, [r3, #0]
 2000e4c:	3107      	adds	r1, #7
 2000e4e:	0609      	lsls	r1, r1, #24
 2000e50:	0e09      	lsrs	r1, r1, #24
 2000e52:	4a4c      	ldr	r2, [pc, #304]	; (2000f84 <RemapButtons+0x310>)
 2000e54:	2000      	movs	r0, #0
 2000e56:	f000 fc37 	bl	20016c8 <menu+0x2cc>
 2000e5a:	882b      	ldrh	r3, [r5, #0]
 2000e5c:	065b      	lsls	r3, r3, #25
 2000e5e:	d4ab      	bmi.n	2000db8 <RemapButtons+0x144>
 2000e60:	2340      	movs	r3, #64	; 0x40
 2000e62:	469a      	mov	sl, r3
 2000e64:	f000 fc2d 	bl	20016c2 <menu+0x2c6>
 2000e68:	4652      	mov	r2, sl
 2000e6a:	882b      	ldrh	r3, [r5, #0]
 2000e6c:	421a      	tst	r2, r3
 2000e6e:	d0f9      	beq.n	2000e64 <RemapButtons+0x1f0>
 2000e70:	882b      	ldrh	r3, [r5, #0]
 2000e72:	07db      	lsls	r3, r3, #31
 2000e74:	d4a3      	bmi.n	2000dbe <RemapButtons+0x14a>
 2000e76:	464b      	mov	r3, r9
 2000e78:	781b      	ldrb	r3, [r3, #0]
 2000e7a:	2b00      	cmp	r3, #0
 2000e7c:	d100      	bne.n	2000e80 <RemapButtons+0x20c>
 2000e7e:	e087      	b.n	2000f90 <RemapButtons+0x31c>
 2000e80:	2b01      	cmp	r3, #1
 2000e82:	d100      	bne.n	2000e86 <RemapButtons+0x212>
 2000e84:	e0a5      	b.n	2000fd2 <RemapButtons+0x35e>
 2000e86:	2b02      	cmp	r3, #2
 2000e88:	d100      	bne.n	2000e8c <RemapButtons+0x218>
 2000e8a:	e0c3      	b.n	2001014 <RemapButtons+0x3a0>
 2000e8c:	2b03      	cmp	r3, #3
 2000e8e:	d100      	bne.n	2000e92 <RemapButtons+0x21e>
 2000e90:	e0e1      	b.n	2001056 <RemapButtons+0x3e2>
 2000e92:	2b04      	cmp	r3, #4
 2000e94:	d100      	bne.n	2000e98 <RemapButtons+0x224>
 2000e96:	e0ff      	b.n	2001098 <RemapButtons+0x424>
 2000e98:	2b05      	cmp	r3, #5
 2000e9a:	d100      	bne.n	2000e9e <RemapButtons+0x22a>
 2000e9c:	e11d      	b.n	20010da <RemapButtons+0x466>
 2000e9e:	2b06      	cmp	r3, #6
 2000ea0:	d100      	bne.n	2000ea4 <RemapButtons+0x230>
 2000ea2:	e13b      	b.n	200111c <RemapButtons+0x4a8>
 2000ea4:	2b07      	cmp	r3, #7
 2000ea6:	d100      	bne.n	2000eaa <RemapButtons+0x236>
 2000ea8:	e159      	b.n	200115e <RemapButtons+0x4ea>
 2000eaa:	2b08      	cmp	r3, #8
 2000eac:	d000      	beq.n	2000eb0 <RemapButtons+0x23c>
 2000eae:	e786      	b.n	2000dbe <RemapButtons+0x14a>
 2000eb0:	2201      	movs	r2, #1
 2000eb2:	4d33      	ldr	r5, [pc, #204]	; (2000f80 <RemapButtons+0x30c>)
 2000eb4:	882b      	ldrh	r3, [r5, #0]
 2000eb6:	4692      	mov	sl, r2
 2000eb8:	07db      	lsls	r3, r3, #31
 2000eba:	d405      	bmi.n	2000ec8 <RemapButtons+0x254>
 2000ebc:	f000 fc01 	bl	20016c2 <menu+0x2c6>
 2000ec0:	4652      	mov	r2, sl
 2000ec2:	882b      	ldrh	r3, [r5, #0]
 2000ec4:	421a      	tst	r2, r3
 2000ec6:	d0f9      	beq.n	2000ebc <RemapButtons+0x248>
 2000ec8:	2202      	movs	r2, #2
 2000eca:	4d2d      	ldr	r5, [pc, #180]	; (2000f80 <RemapButtons+0x30c>)
 2000ecc:	882b      	ldrh	r3, [r5, #0]
 2000ece:	4692      	mov	sl, r2
 2000ed0:	079b      	lsls	r3, r3, #30
 2000ed2:	d405      	bmi.n	2000ee0 <RemapButtons+0x26c>
 2000ed4:	f000 fbf5 	bl	20016c2 <menu+0x2c6>
 2000ed8:	4652      	mov	r2, sl
 2000eda:	882b      	ldrh	r3, [r5, #0]
 2000edc:	421a      	tst	r2, r3
 2000ede:	d0f9      	beq.n	2000ed4 <RemapButtons+0x260>
 2000ee0:	2300      	movs	r3, #0
 2000ee2:	464a      	mov	r2, r9
 2000ee4:	2500      	movs	r5, #0
 2000ee6:	7013      	strb	r3, [r2, #0]
 2000ee8:	f000 fbeb 	bl	20016c2 <menu+0x2c6>
 2000eec:	0628      	lsls	r0, r5, #24
 2000eee:	0e00      	lsrs	r0, r0, #24
 2000ef0:	3501      	adds	r5, #1
 2000ef2:	f000 fbe8 	bl	20016c6 <menu+0x2ca>
 2000ef6:	2d10      	cmp	r5, #16
 2000ef8:	d1f6      	bne.n	2000ee8 <RemapButtons+0x274>
 2000efa:	4b18      	ldr	r3, [pc, #96]	; (2000f5c <RemapButtons+0x2e8>)
 2000efc:	f000 fbe0 	bl	20016c0 <menu+0x2c4>
 2000f00:	2300      	movs	r3, #0
 2000f02:	4642      	mov	r2, r8
 2000f04:	2100      	movs	r1, #0
 2000f06:	7013      	strb	r3, [r2, #0]
 2000f08:	4d20      	ldr	r5, [pc, #128]	; (2000f8c <RemapButtons+0x318>)
 2000f0a:	008b      	lsls	r3, r1, #2
 2000f0c:	3107      	adds	r1, #7
 2000f0e:	0609      	lsls	r1, r1, #24
 2000f10:	58ea      	ldr	r2, [r5, r3]
 2000f12:	0e09      	lsrs	r1, r1, #24
 2000f14:	2001      	movs	r0, #1
 2000f16:	f000 fbd7 	bl	20016c8 <menu+0x2cc>
 2000f1a:	4643      	mov	r3, r8
 2000f1c:	7819      	ldrb	r1, [r3, #0]
 2000f1e:	3101      	adds	r1, #1
 2000f20:	0609      	lsls	r1, r1, #24
 2000f22:	0e09      	lsrs	r1, r1, #24
 2000f24:	7019      	strb	r1, [r3, #0]
 2000f26:	2901      	cmp	r1, #1
 2000f28:	d9ef      	bls.n	2000f0a <RemapButtons+0x296>
 2000f2a:	2510      	movs	r5, #16
 2000f2c:	f000 fbc9 	bl	20016c2 <menu+0x2c6>
 2000f30:	0628      	lsls	r0, r5, #24
 2000f32:	0e00      	lsrs	r0, r0, #24
 2000f34:	3d01      	subs	r5, #1
 2000f36:	f000 fbc6 	bl	20016c6 <menu+0x2ca>
 2000f3a:	2d00      	cmp	r5, #0
 2000f3c:	d1f6      	bne.n	2000f2c <RemapButtons+0x2b8>
 2000f3e:	bc3c      	pop	{r2, r3, r4, r5}
 2000f40:	4690      	mov	r8, r2
 2000f42:	4699      	mov	r9, r3
 2000f44:	46a2      	mov	sl, r4
 2000f46:	46ab      	mov	fp, r5
 2000f48:	bcf8      	pop	{r3, r4, r5, r6, r7}
 2000f4a:	bc01      	pop	{r0}
 2000f4c:	4700      	bx	r0
 2000f4e:	46c0      	nop			; (mov r8, r8)
 2000f50:	03001058 	movweq	r1, #88	; 0x58
 2000f54:	02002509 	andeq	r2, r0, #37748736	; 0x2400000
 2000f58:	02004641 	andeq	r4, r0, #68157440	; 0x4100000
 2000f5c:	020027ed 	andeq	r2, r0, #62128128	; 0x3b40000
 2000f60:	0300105f 	movweq	r1, #95	; 0x5f
 2000f64:	03001324 	movweq	r1, #804	; 0x324
 2000f68:	02002791 	andeq	r2, r0, #38010880	; 0x2440000
 2000f6c:	0200d24c 	andeq	sp, r0, #76, 4	; 0xc0000004
 2000f70:	0200d23c 	andeq	sp, r0, #60, 4	; 0xc0000003
 2000f74:	03001348 	movweq	r1, #840	; 0x348
 2000f78:	030012a4 	movweq	r1, #676	; 0x2a4
 2000f7c:	030012e4 	movweq	r1, #740	; 0x2e4
 2000f80:	04000130 	streq	r0, [r0], #-304	; 0xfffffed0
 2000f84:	0200f410 	andeq	pc, r0, #16, 8	; 0x10000000
 2000f88:	0200f438 	andeq	pc, r0, #56, 8	; 0x38000000
 2000f8c:	030013f0 	movweq	r1, #1008	; 0x3f0
 2000f90:	465a      	mov	r2, fp
 2000f92:	6811      	ldr	r1, [r2, #0]
 2000f94:	784a      	ldrb	r2, [r1, #1]
 2000f96:	3201      	adds	r2, #1
 2000f98:	0612      	lsls	r2, r2, #24
 2000f9a:	0e12      	lsrs	r2, r2, #24
 2000f9c:	2a0f      	cmp	r2, #15
 2000f9e:	d900      	bls.n	2000fa2 <RemapButtons+0x32e>
 2000fa0:	e0fc      	b.n	200119c <RemapButtons+0x528>
 2000fa2:	704a      	strb	r2, [r1, #1]
 2000fa4:	4b7f      	ldr	r3, [pc, #508]	; (20011a4 <RemapButtons+0x530>)
 2000fa6:	0092      	lsls	r2, r2, #2
 2000fa8:	589a      	ldr	r2, [r3, r2]
 2000faa:	2107      	movs	r1, #7
 2000fac:	2004      	movs	r0, #4
 2000fae:	f000 fb8b 	bl	20016c8 <menu+0x2cc>
 2000fb2:	2201      	movs	r2, #1
 2000fb4:	882b      	ldrh	r3, [r5, #0]
 2000fb6:	4692      	mov	sl, r2
 2000fb8:	07db      	lsls	r3, r3, #31
 2000fba:	d405      	bmi.n	2000fc8 <RemapButtons+0x354>
 2000fbc:	f000 fb81 	bl	20016c2 <menu+0x2c6>
 2000fc0:	4652      	mov	r2, sl
 2000fc2:	882b      	ldrh	r3, [r5, #0]
 2000fc4:	421a      	tst	r2, r3
 2000fc6:	d0f9      	beq.n	2000fbc <RemapButtons+0x348>
 2000fc8:	464b      	mov	r3, r9
 2000fca:	781b      	ldrb	r3, [r3, #0]
 2000fcc:	2b01      	cmp	r3, #1
 2000fce:	d000      	beq.n	2000fd2 <RemapButtons+0x35e>
 2000fd0:	e759      	b.n	2000e86 <RemapButtons+0x212>
 2000fd2:	465b      	mov	r3, fp
 2000fd4:	681a      	ldr	r2, [r3, #0]
 2000fd6:	7893      	ldrb	r3, [r2, #2]
 2000fd8:	3301      	adds	r3, #1
 2000fda:	061b      	lsls	r3, r3, #24
 2000fdc:	0e1b      	lsrs	r3, r3, #24
 2000fde:	2b0f      	cmp	r3, #15
 2000fe0:	d900      	bls.n	2000fe4 <RemapButtons+0x370>
 2000fe2:	2300      	movs	r3, #0
 2000fe4:	7093      	strb	r3, [r2, #2]
 2000fe6:	4a6f      	ldr	r2, [pc, #444]	; (20011a4 <RemapButtons+0x530>)
 2000fe8:	009b      	lsls	r3, r3, #2
 2000fea:	58d2      	ldr	r2, [r2, r3]
 2000fec:	2108      	movs	r1, #8
 2000fee:	2004      	movs	r0, #4
 2000ff0:	f000 fb6a 	bl	20016c8 <menu+0x2cc>
 2000ff4:	2201      	movs	r2, #1
 2000ff6:	882b      	ldrh	r3, [r5, #0]
 2000ff8:	4692      	mov	sl, r2
 2000ffa:	07db      	lsls	r3, r3, #31
 2000ffc:	d405      	bmi.n	200100a <RemapButtons+0x396>
 2000ffe:	f000 fb60 	bl	20016c2 <menu+0x2c6>
 2001002:	4652      	mov	r2, sl
 2001004:	882b      	ldrh	r3, [r5, #0]
 2001006:	421a      	tst	r2, r3
 2001008:	d0f9      	beq.n	2000ffe <RemapButtons+0x38a>
 200100a:	464b      	mov	r3, r9
 200100c:	781b      	ldrb	r3, [r3, #0]
 200100e:	2b02      	cmp	r3, #2
 2001010:	d000      	beq.n	2001014 <RemapButtons+0x3a0>
 2001012:	e73b      	b.n	2000e8c <RemapButtons+0x218>
 2001014:	465b      	mov	r3, fp
 2001016:	681a      	ldr	r2, [r3, #0]
 2001018:	78d3      	ldrb	r3, [r2, #3]
 200101a:	3301      	adds	r3, #1
 200101c:	061b      	lsls	r3, r3, #24
 200101e:	0e1b      	lsrs	r3, r3, #24
 2001020:	2b0f      	cmp	r3, #15
 2001022:	d900      	bls.n	2001026 <RemapButtons+0x3b2>
 2001024:	2300      	movs	r3, #0
 2001026:	70d3      	strb	r3, [r2, #3]
 2001028:	4a5e      	ldr	r2, [pc, #376]	; (20011a4 <RemapButtons+0x530>)
 200102a:	009b      	lsls	r3, r3, #2
 200102c:	58d2      	ldr	r2, [r2, r3]
 200102e:	2109      	movs	r1, #9
 2001030:	2005      	movs	r0, #5
 2001032:	f000 fb49 	bl	20016c8 <menu+0x2cc>
 2001036:	2201      	movs	r2, #1
 2001038:	882b      	ldrh	r3, [r5, #0]
 200103a:	4692      	mov	sl, r2
 200103c:	07db      	lsls	r3, r3, #31
 200103e:	d405      	bmi.n	200104c <RemapButtons+0x3d8>
 2001040:	f000 fb3f 	bl	20016c2 <menu+0x2c6>
 2001044:	4652      	mov	r2, sl
 2001046:	882b      	ldrh	r3, [r5, #0]
 2001048:	421a      	tst	r2, r3
 200104a:	d0f9      	beq.n	2001040 <RemapButtons+0x3cc>
 200104c:	464b      	mov	r3, r9
 200104e:	781b      	ldrb	r3, [r3, #0]
 2001050:	2b03      	cmp	r3, #3
 2001052:	d000      	beq.n	2001056 <RemapButtons+0x3e2>
 2001054:	e71d      	b.n	2000e92 <RemapButtons+0x21e>
 2001056:	465b      	mov	r3, fp
 2001058:	681a      	ldr	r2, [r3, #0]
 200105a:	7913      	ldrb	r3, [r2, #4]
 200105c:	3301      	adds	r3, #1
 200105e:	061b      	lsls	r3, r3, #24
 2001060:	0e1b      	lsrs	r3, r3, #24
 2001062:	2b0f      	cmp	r3, #15
 2001064:	d900      	bls.n	2001068 <RemapButtons+0x3f4>
 2001066:	2300      	movs	r3, #0
 2001068:	7113      	strb	r3, [r2, #4]
 200106a:	4a4e      	ldr	r2, [pc, #312]	; (20011a4 <RemapButtons+0x530>)
 200106c:	009b      	lsls	r3, r3, #2
 200106e:	58d2      	ldr	r2, [r2, r3]
 2001070:	210a      	movs	r1, #10
 2001072:	2007      	movs	r0, #7
 2001074:	f000 fb28 	bl	20016c8 <menu+0x2cc>
 2001078:	2201      	movs	r2, #1
 200107a:	882b      	ldrh	r3, [r5, #0]
 200107c:	4692      	mov	sl, r2
 200107e:	07db      	lsls	r3, r3, #31
 2001080:	d405      	bmi.n	200108e <RemapButtons+0x41a>
 2001082:	f000 fb1e 	bl	20016c2 <menu+0x2c6>
 2001086:	4652      	mov	r2, sl
 2001088:	882b      	ldrh	r3, [r5, #0]
 200108a:	421a      	tst	r2, r3
 200108c:	d0f9      	beq.n	2001082 <RemapButtons+0x40e>
 200108e:	464b      	mov	r3, r9
 2001090:	781b      	ldrb	r3, [r3, #0]
 2001092:	2b04      	cmp	r3, #4
 2001094:	d000      	beq.n	2001098 <RemapButtons+0x424>
 2001096:	e6ff      	b.n	2000e98 <RemapButtons+0x224>
 2001098:	465b      	mov	r3, fp
 200109a:	681a      	ldr	r2, [r3, #0]
 200109c:	7953      	ldrb	r3, [r2, #5]
 200109e:	3301      	adds	r3, #1
 20010a0:	061b      	lsls	r3, r3, #24
 20010a2:	0e1b      	lsrs	r3, r3, #24
 20010a4:	2b0f      	cmp	r3, #15
 20010a6:	d900      	bls.n	20010aa <RemapButtons+0x436>
 20010a8:	2300      	movs	r3, #0
 20010aa:	7153      	strb	r3, [r2, #5]
 20010ac:	4a3d      	ldr	r2, [pc, #244]	; (20011a4 <RemapButtons+0x530>)
 20010ae:	009b      	lsls	r3, r3, #2
 20010b0:	58d2      	ldr	r2, [r2, r3]
 20010b2:	210b      	movs	r1, #11
 20010b4:	2007      	movs	r0, #7
 20010b6:	f000 fb07 	bl	20016c8 <menu+0x2cc>
 20010ba:	2201      	movs	r2, #1
 20010bc:	882b      	ldrh	r3, [r5, #0]
 20010be:	4692      	mov	sl, r2
 20010c0:	07db      	lsls	r3, r3, #31
 20010c2:	d405      	bmi.n	20010d0 <RemapButtons+0x45c>
 20010c4:	f000 fafd 	bl	20016c2 <menu+0x2c6>
 20010c8:	4652      	mov	r2, sl
 20010ca:	882b      	ldrh	r3, [r5, #0]
 20010cc:	421a      	tst	r2, r3
 20010ce:	d0f9      	beq.n	20010c4 <RemapButtons+0x450>
 20010d0:	464b      	mov	r3, r9
 20010d2:	781b      	ldrb	r3, [r3, #0]
 20010d4:	2b05      	cmp	r3, #5
 20010d6:	d000      	beq.n	20010da <RemapButtons+0x466>
 20010d8:	e6e1      	b.n	2000e9e <RemapButtons+0x22a>
 20010da:	465b      	mov	r3, fp
 20010dc:	681a      	ldr	r2, [r3, #0]
 20010de:	7993      	ldrb	r3, [r2, #6]
 20010e0:	3301      	adds	r3, #1
 20010e2:	061b      	lsls	r3, r3, #24
 20010e4:	0e1b      	lsrs	r3, r3, #24
 20010e6:	2b0f      	cmp	r3, #15
 20010e8:	d900      	bls.n	20010ec <RemapButtons+0x478>
 20010ea:	2300      	movs	r3, #0
 20010ec:	7193      	strb	r3, [r2, #6]
 20010ee:	4a2d      	ldr	r2, [pc, #180]	; (20011a4 <RemapButtons+0x530>)
 20010f0:	009b      	lsls	r3, r3, #2
 20010f2:	58d2      	ldr	r2, [r2, r3]
 20010f4:	210c      	movs	r1, #12
 20010f6:	2008      	movs	r0, #8
 20010f8:	f000 fae6 	bl	20016c8 <menu+0x2cc>
 20010fc:	2201      	movs	r2, #1
 20010fe:	882b      	ldrh	r3, [r5, #0]
 2001100:	4692      	mov	sl, r2
 2001102:	07db      	lsls	r3, r3, #31
 2001104:	d405      	bmi.n	2001112 <RemapButtons+0x49e>
 2001106:	f000 fadc 	bl	20016c2 <menu+0x2c6>
 200110a:	4652      	mov	r2, sl
 200110c:	882b      	ldrh	r3, [r5, #0]
 200110e:	421a      	tst	r2, r3
 2001110:	d0f9      	beq.n	2001106 <RemapButtons+0x492>
 2001112:	464b      	mov	r3, r9
 2001114:	781b      	ldrb	r3, [r3, #0]
 2001116:	2b06      	cmp	r3, #6
 2001118:	d000      	beq.n	200111c <RemapButtons+0x4a8>
 200111a:	e6c3      	b.n	2000ea4 <RemapButtons+0x230>
 200111c:	465b      	mov	r3, fp
 200111e:	681a      	ldr	r2, [r3, #0]
 2001120:	79d3      	ldrb	r3, [r2, #7]
 2001122:	3301      	adds	r3, #1
 2001124:	061b      	lsls	r3, r3, #24
 2001126:	0e1b      	lsrs	r3, r3, #24
 2001128:	2b0f      	cmp	r3, #15
 200112a:	d900      	bls.n	200112e <RemapButtons+0x4ba>
 200112c:	2300      	movs	r3, #0
 200112e:	71d3      	strb	r3, [r2, #7]
 2001130:	4a1c      	ldr	r2, [pc, #112]	; (20011a4 <RemapButtons+0x530>)
 2001132:	009b      	lsls	r3, r3, #2
 2001134:	58d2      	ldr	r2, [r2, r3]
 2001136:	210d      	movs	r1, #13
 2001138:	2009      	movs	r0, #9
 200113a:	f000 fac5 	bl	20016c8 <menu+0x2cc>
 200113e:	2201      	movs	r2, #1
 2001140:	882b      	ldrh	r3, [r5, #0]
 2001142:	4692      	mov	sl, r2
 2001144:	07db      	lsls	r3, r3, #31
 2001146:	d405      	bmi.n	2001154 <RemapButtons+0x4e0>
 2001148:	f000 fabb 	bl	20016c2 <menu+0x2c6>
 200114c:	4652      	mov	r2, sl
 200114e:	882b      	ldrh	r3, [r5, #0]
 2001150:	421a      	tst	r2, r3
 2001152:	d0f9      	beq.n	2001148 <RemapButtons+0x4d4>
 2001154:	464b      	mov	r3, r9
 2001156:	781b      	ldrb	r3, [r3, #0]
 2001158:	2b07      	cmp	r3, #7
 200115a:	d000      	beq.n	200115e <RemapButtons+0x4ea>
 200115c:	e6a5      	b.n	2000eaa <RemapButtons+0x236>
 200115e:	465b      	mov	r3, fp
 2001160:	681a      	ldr	r2, [r3, #0]
 2001162:	7a13      	ldrb	r3, [r2, #8]
 2001164:	3301      	adds	r3, #1
 2001166:	061b      	lsls	r3, r3, #24
 2001168:	0e1b      	lsrs	r3, r3, #24
 200116a:	2b0f      	cmp	r3, #15
 200116c:	d900      	bls.n	2001170 <RemapButtons+0x4fc>
 200116e:	2300      	movs	r3, #0
 2001170:	7213      	strb	r3, [r2, #8]
 2001172:	4a0c      	ldr	r2, [pc, #48]	; (20011a4 <RemapButtons+0x530>)
 2001174:	009b      	lsls	r3, r3, #2
 2001176:	58d2      	ldr	r2, [r2, r3]
 2001178:	210e      	movs	r1, #14
 200117a:	2008      	movs	r0, #8
 200117c:	f000 faa4 	bl	20016c8 <menu+0x2cc>
 2001180:	2201      	movs	r2, #1
 2001182:	882b      	ldrh	r3, [r5, #0]
 2001184:	4692      	mov	sl, r2
 2001186:	07db      	lsls	r3, r3, #31
 2001188:	d405      	bmi.n	2001196 <RemapButtons+0x522>
 200118a:	f000 fa9a 	bl	20016c2 <menu+0x2c6>
 200118e:	4652      	mov	r2, sl
 2001190:	882b      	ldrh	r3, [r5, #0]
 2001192:	421a      	tst	r2, r3
 2001194:	d0f9      	beq.n	200118a <RemapButtons+0x516>
 2001196:	464b      	mov	r3, r9
 2001198:	781b      	ldrb	r3, [r3, #0]
 200119a:	e686      	b.n	2000eaa <RemapButtons+0x236>
 200119c:	704b      	strb	r3, [r1, #1]
 200119e:	2200      	movs	r2, #0
 20011a0:	e700      	b.n	2000fa4 <RemapButtons+0x330>
 20011a2:	46c0      	nop			; (mov r8, r8)
 20011a4:	030012e4 	movweq	r1, #740	; 0x2e4

020011a8 <ControllerSettings>:
 20011a8:	b5f8      	push	{r3, r4, r5, r6, r7, lr}
 20011aa:	4b86      	ldr	r3, [pc, #536]	; (20013c4 <ControllerSettings+0x21c>)
 20011ac:	464e      	mov	r6, r9
 20011ae:	4699      	mov	r9, r3
 20011b0:	4645      	mov	r5, r8
 20011b2:	46de      	mov	lr, fp
 20011b4:	4657      	mov	r7, sl
 20011b6:	2300      	movs	r3, #0
 20011b8:	464a      	mov	r2, r9
 20011ba:	b5e0      	push	{r5, r6, r7, lr}
 20011bc:	2500      	movs	r5, #0
 20011be:	7013      	strb	r3, [r2, #0]
 20011c0:	4c81      	ldr	r4, [pc, #516]	; (20013c8 <ControllerSettings+0x220>)
 20011c2:	4e82      	ldr	r6, [pc, #520]	; (20013cc <ControllerSettings+0x224>)
 20011c4:	f000 fa7d 	bl	20016c2 <menu+0x2c6>
 20011c8:	0628      	lsls	r0, r5, #24
 20011ca:	0e00      	lsrs	r0, r0, #24
 20011cc:	3501      	adds	r5, #1
 20011ce:	f000 fa7a 	bl	20016c6 <menu+0x2ca>
 20011d2:	2d10      	cmp	r5, #16
 20011d4:	d1f6      	bne.n	20011c4 <ControllerSettings+0x1c>
 20011d6:	4b7e      	ldr	r3, [pc, #504]	; (20013d0 <ControllerSettings+0x228>)
 20011d8:	f000 fa72 	bl	20016c0 <menu+0x2c4>
 20011dc:	4b7d      	ldr	r3, [pc, #500]	; (20013d4 <ControllerSettings+0x22c>)
 20011de:	4698      	mov	r8, r3
 20011e0:	2300      	movs	r3, #0
 20011e2:	4642      	mov	r2, r8
 20011e4:	2100      	movs	r1, #0
 20011e6:	7013      	strb	r3, [r2, #0]
 20011e8:	4d7b      	ldr	r5, [pc, #492]	; (20013d8 <ControllerSettings+0x230>)
 20011ea:	4f7c      	ldr	r7, [pc, #496]	; (20013dc <ControllerSettings+0x234>)
 20011ec:	008b      	lsls	r3, r1, #2
 20011ee:	3107      	adds	r1, #7
 20011f0:	0609      	lsls	r1, r1, #24
 20011f2:	58ea      	ldr	r2, [r5, r3]
 20011f4:	0e09      	lsrs	r1, r1, #24
 20011f6:	2001      	movs	r0, #1
 20011f8:	f000 fa66 	bl	20016c8 <menu+0x2cc>
 20011fc:	4643      	mov	r3, r8
 20011fe:	7819      	ldrb	r1, [r3, #0]
 2001200:	3101      	adds	r1, #1
 2001202:	0609      	lsls	r1, r1, #24
 2001204:	0e09      	lsrs	r1, r1, #24
 2001206:	7019      	strb	r1, [r3, #0]
 2001208:	2901      	cmp	r1, #1
 200120a:	d9ef      	bls.n	20011ec <ControllerSettings+0x44>
 200120c:	4a74      	ldr	r2, [pc, #464]	; (20013e0 <ControllerSettings+0x238>)
 200120e:	2112      	movs	r1, #18
 2001210:	2000      	movs	r0, #0
 2001212:	f000 fa59 	bl	20016c8 <menu+0x2cc>
 2001216:	4a73      	ldr	r2, [pc, #460]	; (20013e4 <ControllerSettings+0x23c>)
 2001218:	2113      	movs	r1, #19
 200121a:	2000      	movs	r0, #0
 200121c:	f000 fa54 	bl	20016c8 <menu+0x2cc>
 2001220:	4b71      	ldr	r3, [pc, #452]	; (20013e8 <ControllerSettings+0x240>)
 2001222:	2100      	movs	r1, #0
 2001224:	681a      	ldr	r2, [r3, #0]
 2001226:	2000      	movs	r0, #0
 2001228:	f000 fa4e 	bl	20016c8 <menu+0x2cc>
 200122c:	2510      	movs	r5, #16
 200122e:	f000 fa48 	bl	20016c2 <menu+0x2c6>
 2001232:	0628      	lsls	r0, r5, #24
 2001234:	0e00      	lsrs	r0, r0, #24
 2001236:	3d01      	subs	r5, #1
 2001238:	f000 fa45 	bl	20016c6 <menu+0x2ca>
 200123c:	2d00      	cmp	r5, #0
 200123e:	d1f6      	bne.n	200122e <ControllerSettings+0x86>
 2001240:	4b6a      	ldr	r3, [pc, #424]	; (20013ec <ControllerSettings+0x244>)
 2001242:	4d6b      	ldr	r5, [pc, #428]	; (20013f0 <ControllerSettings+0x248>)
 2001244:	469b      	mov	fp, r3
 2001246:	e005      	b.n	2001254 <ControllerSettings+0xac>
 2001248:	882b      	ldrh	r3, [r5, #0]
 200124a:	065b      	lsls	r3, r3, #25
 200124c:	d534      	bpl.n	20012b8 <ControllerSettings+0x110>
 200124e:	882b      	ldrh	r3, [r5, #0]
 2001250:	07db      	lsls	r3, r3, #31
 2001252:	d557      	bpl.n	2001304 <ControllerSettings+0x15c>
 2001254:	882b      	ldrh	r3, [r5, #0]
 2001256:	079b      	lsls	r3, r3, #30
 2001258:	d55a      	bpl.n	2001310 <ControllerSettings+0x168>
 200125a:	464b      	mov	r3, r9
 200125c:	7819      	ldrb	r1, [r3, #0]
 200125e:	3107      	adds	r1, #7
 2001260:	0609      	lsls	r1, r1, #24
 2001262:	0e09      	lsrs	r1, r1, #24
 2001264:	465a      	mov	r2, fp
 2001266:	2000      	movs	r0, #0
 2001268:	f000 fa2e 	bl	20016c8 <menu+0x2cc>
 200126c:	882b      	ldrh	r3, [r5, #0]
 200126e:	061b      	lsls	r3, r3, #24
 2001270:	d4ea      	bmi.n	2001248 <ControllerSettings+0xa0>
 2001272:	464b      	mov	r3, r9
 2001274:	7819      	ldrb	r1, [r3, #0]
 2001276:	3107      	adds	r1, #7
 2001278:	0609      	lsls	r1, r1, #24
 200127a:	0e09      	lsrs	r1, r1, #24
 200127c:	4a5d      	ldr	r2, [pc, #372]	; (20013f4 <ControllerSettings+0x24c>)
 200127e:	2000      	movs	r0, #0
 2001280:	f000 fa22 	bl	20016c8 <menu+0x2cc>
 2001284:	464b      	mov	r3, r9
 2001286:	7819      	ldrb	r1, [r3, #0]
 2001288:	2900      	cmp	r1, #0
 200128a:	d100      	bne.n	200128e <ControllerSettings+0xe6>
 200128c:	e08d      	b.n	20013aa <ControllerSettings+0x202>
 200128e:	3107      	adds	r1, #7
 2001290:	0609      	lsls	r1, r1, #24
 2001292:	0e09      	lsrs	r1, r1, #24
 2001294:	465a      	mov	r2, fp
 2001296:	2000      	movs	r0, #0
 2001298:	f000 fa16 	bl	20016c8 <menu+0x2cc>
 200129c:	882b      	ldrh	r3, [r5, #0]
 200129e:	061b      	lsls	r3, r3, #24
 20012a0:	d4d2      	bmi.n	2001248 <ControllerSettings+0xa0>
 20012a2:	2380      	movs	r3, #128	; 0x80
 20012a4:	469a      	mov	sl, r3
 20012a6:	f000 fa0c 	bl	20016c2 <menu+0x2c6>
 20012aa:	4652      	mov	r2, sl
 20012ac:	882b      	ldrh	r3, [r5, #0]
 20012ae:	421a      	tst	r2, r3
 20012b0:	d0f9      	beq.n	20012a6 <ControllerSettings+0xfe>
 20012b2:	882b      	ldrh	r3, [r5, #0]
 20012b4:	065b      	lsls	r3, r3, #25
 20012b6:	d4ca      	bmi.n	200124e <ControllerSettings+0xa6>
 20012b8:	464b      	mov	r3, r9
 20012ba:	7819      	ldrb	r1, [r3, #0]
 20012bc:	3107      	adds	r1, #7
 20012be:	0609      	lsls	r1, r1, #24
 20012c0:	0e09      	lsrs	r1, r1, #24
 20012c2:	4a4c      	ldr	r2, [pc, #304]	; (20013f4 <ControllerSettings+0x24c>)
 20012c4:	2000      	movs	r0, #0
 20012c6:	f000 f9ff 	bl	20016c8 <menu+0x2cc>
 20012ca:	464b      	mov	r3, r9
 20012cc:	7819      	ldrb	r1, [r3, #0]
 20012ce:	2900      	cmp	r1, #0
 20012d0:	d003      	beq.n	20012da <ControllerSettings+0x132>
 20012d2:	3901      	subs	r1, #1
 20012d4:	0609      	lsls	r1, r1, #24
 20012d6:	0e09      	lsrs	r1, r1, #24
 20012d8:	7019      	strb	r1, [r3, #0]
 20012da:	3107      	adds	r1, #7
 20012dc:	0609      	lsls	r1, r1, #24
 20012de:	0e09      	lsrs	r1, r1, #24
 20012e0:	465a      	mov	r2, fp
 20012e2:	2000      	movs	r0, #0
 20012e4:	f000 f9f0 	bl	20016c8 <menu+0x2cc>
 20012e8:	882b      	ldrh	r3, [r5, #0]
 20012ea:	065b      	lsls	r3, r3, #25
 20012ec:	d4af      	bmi.n	200124e <ControllerSettings+0xa6>
 20012ee:	2340      	movs	r3, #64	; 0x40
 20012f0:	469a      	mov	sl, r3
 20012f2:	f000 f9e6 	bl	20016c2 <menu+0x2c6>
 20012f6:	4652      	mov	r2, sl
 20012f8:	882b      	ldrh	r3, [r5, #0]
 20012fa:	421a      	tst	r2, r3
 20012fc:	d0f9      	beq.n	20012f2 <ControllerSettings+0x14a>
 20012fe:	882b      	ldrh	r3, [r5, #0]
 2001300:	07db      	lsls	r3, r3, #31
 2001302:	d4a7      	bmi.n	2001254 <ControllerSettings+0xac>
 2001304:	464b      	mov	r3, r9
 2001306:	781b      	ldrb	r3, [r3, #0]
 2001308:	2b00      	cmp	r3, #0
 200130a:	d053      	beq.n	20013b4 <ControllerSettings+0x20c>
 200130c:	2b01      	cmp	r3, #1
 200130e:	d1a1      	bne.n	2001254 <ControllerSettings+0xac>
 2001310:	2500      	movs	r5, #0
 2001312:	f000 f9d6 	bl	20016c2 <menu+0x2c6>
 2001316:	0628      	lsls	r0, r5, #24
 2001318:	0e00      	lsrs	r0, r0, #24
 200131a:	3501      	adds	r5, #1
 200131c:	f000 f9d3 	bl	20016c6 <menu+0x2ca>
 2001320:	2d10      	cmp	r5, #16
 2001322:	d1f6      	bne.n	2001312 <ControllerSettings+0x16a>
 2001324:	4b2a      	ldr	r3, [pc, #168]	; (20013d0 <ControllerSettings+0x228>)
 2001326:	f000 f9cb 	bl	20016c0 <menu+0x2c4>
 200132a:	2201      	movs	r2, #1
 200132c:	4d30      	ldr	r5, [pc, #192]	; (20013f0 <ControllerSettings+0x248>)
 200132e:	882b      	ldrh	r3, [r5, #0]
 2001330:	4692      	mov	sl, r2
 2001332:	07db      	lsls	r3, r3, #31
 2001334:	d405      	bmi.n	2001342 <ControllerSettings+0x19a>
 2001336:	f000 f9c4 	bl	20016c2 <menu+0x2c6>
 200133a:	4652      	mov	r2, sl
 200133c:	882b      	ldrh	r3, [r5, #0]
 200133e:	421a      	tst	r2, r3
 2001340:	d0f9      	beq.n	2001336 <ControllerSettings+0x18e>
 2001342:	2300      	movs	r3, #0
 2001344:	4642      	mov	r2, r8
 2001346:	2100      	movs	r1, #0
 2001348:	7013      	strb	r3, [r2, #0]
 200134a:	4d2b      	ldr	r5, [pc, #172]	; (20013f8 <ControllerSettings+0x250>)
 200134c:	008b      	lsls	r3, r1, #2
 200134e:	3107      	adds	r1, #7
 2001350:	0609      	lsls	r1, r1, #24
 2001352:	58ea      	ldr	r2, [r5, r3]
 2001354:	0e09      	lsrs	r1, r1, #24
 2001356:	2001      	movs	r0, #1
 2001358:	f000 f9b6 	bl	20016c8 <menu+0x2cc>
 200135c:	4643      	mov	r3, r8
 200135e:	7819      	ldrb	r1, [r3, #0]
 2001360:	3101      	adds	r1, #1
 2001362:	0609      	lsls	r1, r1, #24
 2001364:	0e09      	lsrs	r1, r1, #24
 2001366:	7019      	strb	r1, [r3, #0]
 2001368:	2907      	cmp	r1, #7
 200136a:	d9ef      	bls.n	200134c <ControllerSettings+0x1a4>
 200136c:	4a1c      	ldr	r2, [pc, #112]	; (20013e0 <ControllerSettings+0x238>)
 200136e:	2112      	movs	r1, #18
 2001370:	2000      	movs	r0, #0
 2001372:	f000 f9a9 	bl	20016c8 <menu+0x2cc>
 2001376:	4a1b      	ldr	r2, [pc, #108]	; (20013e4 <ControllerSettings+0x23c>)
 2001378:	2113      	movs	r1, #19
 200137a:	2000      	movs	r0, #0
 200137c:	f000 f9a4 	bl	20016c8 <menu+0x2cc>
 2001380:	2300      	movs	r3, #0
 2001382:	464a      	mov	r2, r9
 2001384:	2510      	movs	r5, #16
 2001386:	7013      	strb	r3, [r2, #0]
 2001388:	f000 f99b 	bl	20016c2 <menu+0x2c6>
 200138c:	0628      	lsls	r0, r5, #24
 200138e:	0e00      	lsrs	r0, r0, #24
 2001390:	3d01      	subs	r5, #1
 2001392:	f000 f998 	bl	20016c6 <menu+0x2ca>
 2001396:	2d00      	cmp	r5, #0
 2001398:	d1f6      	bne.n	2001388 <ControllerSettings+0x1e0>
 200139a:	bc3c      	pop	{r2, r3, r4, r5}
 200139c:	4690      	mov	r8, r2
 200139e:	4699      	mov	r9, r3
 20013a0:	46a2      	mov	sl, r4
 20013a2:	46ab      	mov	fp, r5
 20013a4:	bcf8      	pop	{r3, r4, r5, r6, r7}
 20013a6:	bc01      	pop	{r0}
 20013a8:	4700      	bx	r0
 20013aa:	2301      	movs	r3, #1
 20013ac:	464a      	mov	r2, r9
 20013ae:	2108      	movs	r1, #8
 20013b0:	7013      	strb	r3, [r2, #0]
 20013b2:	e76f      	b.n	2001294 <ControllerSettings+0xec>
 20013b4:	f7ff fc5e 	bl	2000c74 <RemapButtons>
 20013b8:	464b      	mov	r3, r9
 20013ba:	781b      	ldrb	r3, [r3, #0]
 20013bc:	2b01      	cmp	r3, #1
 20013be:	d000      	beq.n	20013c2 <ControllerSettings+0x21a>
 20013c0:	e748      	b.n	2001254 <ControllerSettings+0xac>
 20013c2:	e7a5      	b.n	2001310 <ControllerSettings+0x168>
 20013c4:	03001058 	movweq	r1, #88	; 0x58
 20013c8:	02002509 	andeq	r2, r0, #37748736	; 0x2400000
 20013cc:	02004641 	andeq	r4, r0, #68157440	; 0x4100000
 20013d0:	020027ed 	andeq	r2, r0, #62128128	; 0x3b40000
 20013d4:	0300105f 	movweq	r1, #95	; 0x5f
 20013d8:	030013f0 	movweq	r1, #1008	; 0x3f0
 20013dc:	02002791 	andeq	r2, r0, #38010880	; 0x2440000
 20013e0:	0200d24c 	andeq	sp, r0, #76, 4	; 0xc0000004
 20013e4:	0200d23c 	andeq	sp, r0, #60, 4	; 0xc0000003
 20013e8:	03001348 	movweq	r1, #840	; 0x348
 20013ec:	0200f410 	andeq	pc, r0, #16, 8	; 0x10000000
 20013f0:	04000130 	streq	r0, [r0], #-304	; 0xfffffed0
 20013f4:	0200f438 	andeq	pc, r0, #56, 8	; 0x38000000
 20013f8:	030013f8 	movweq	r1, #1016	; 0x3f8

020013fc <menu>:
 20013fc:	b5f8      	push	{r3, r4, r5, r6, r7, lr}
 20013fe:	46de      	mov	lr, fp
 2001400:	464e      	mov	r6, r9
 2001402:	4645      	mov	r5, r8
 2001404:	4657      	mov	r7, sl
 2001406:	2002      	movs	r0, #2
 2001408:	b5e0      	push	{r5, r6, r7, lr}
 200140a:	4b96      	ldr	r3, [pc, #600]	; (2001664 <menu+0x268>)
 200140c:	f000 f958 	bl	20016c0 <menu+0x2c4>
 2001410:	2000      	movs	r0, #0
 2001412:	4b95      	ldr	r3, [pc, #596]	; (2001668 <menu+0x26c>)
 2001414:	f000 f954 	bl	20016c0 <menu+0x2c4>
 2001418:	4b94      	ldr	r3, [pc, #592]	; (200166c <menu+0x270>)
 200141a:	f000 f951 	bl	20016c0 <menu+0x2c4>
 200141e:	4b94      	ldr	r3, [pc, #592]	; (2001670 <menu+0x274>)
 2001420:	2002      	movs	r0, #2
 2001422:	f000 f94d 	bl	20016c0 <menu+0x2c4>
 2001426:	2300      	movs	r3, #0
 2001428:	2100      	movs	r1, #0
 200142a:	4c92      	ldr	r4, [pc, #584]	; (2001674 <menu+0x278>)
 200142c:	4e92      	ldr	r6, [pc, #584]	; (2001678 <menu+0x27c>)
 200142e:	7023      	strb	r3, [r4, #0]
 2001430:	4d92      	ldr	r5, [pc, #584]	; (200167c <menu+0x280>)
 2001432:	008b      	lsls	r3, r1, #2
 2001434:	3107      	adds	r1, #7
 2001436:	0609      	lsls	r1, r1, #24
 2001438:	0e09      	lsrs	r1, r1, #24
 200143a:	58f2      	ldr	r2, [r6, r3]
 200143c:	2001      	movs	r0, #1
 200143e:	f000 f941 	bl	20016c4 <menu+0x2c8>
 2001442:	7821      	ldrb	r1, [r4, #0]
 2001444:	3101      	adds	r1, #1
 2001446:	0609      	lsls	r1, r1, #24
 2001448:	0e09      	lsrs	r1, r1, #24
 200144a:	7021      	strb	r1, [r4, #0]
 200144c:	2907      	cmp	r1, #7
 200144e:	d9f0      	bls.n	2001432 <menu+0x36>
 2001450:	4a8b      	ldr	r2, [pc, #556]	; (2001680 <menu+0x284>)
 2001452:	2112      	movs	r1, #18
 2001454:	2000      	movs	r0, #0
 2001456:	f000 f935 	bl	20016c4 <menu+0x2c8>
 200145a:	4a8a      	ldr	r2, [pc, #552]	; (2001684 <menu+0x288>)
 200145c:	2113      	movs	r1, #19
 200145e:	2000      	movs	r0, #0
 2001460:	f000 f930 	bl	20016c4 <menu+0x2c8>
 2001464:	2300      	movs	r3, #0
 2001466:	4f88      	ldr	r7, [pc, #544]	; (2001688 <menu+0x28c>)
 2001468:	703b      	strb	r3, [r7, #0]
 200146a:	3310      	adds	r3, #16
 200146c:	4698      	mov	r8, r3
 200146e:	4c87      	ldr	r4, [pc, #540]	; (200168c <menu+0x290>)
 2001470:	4e87      	ldr	r6, [pc, #540]	; (2001690 <menu+0x294>)
 2001472:	f000 f926 	bl	20016c2 <menu+0x2c6>
 2001476:	4643      	mov	r3, r8
 2001478:	0618      	lsls	r0, r3, #24
 200147a:	0e00      	lsrs	r0, r0, #24
 200147c:	f000 f923 	bl	20016c6 <menu+0x2ca>
 2001480:	2301      	movs	r3, #1
 2001482:	425b      	negs	r3, r3
 2001484:	469c      	mov	ip, r3
 2001486:	44e0      	add	r8, ip
 2001488:	4643      	mov	r3, r8
 200148a:	2b00      	cmp	r3, #0
 200148c:	d1f1      	bne.n	2001472 <menu+0x76>
 200148e:	4b81      	ldr	r3, [pc, #516]	; (2001694 <menu+0x298>)
 2001490:	4699      	mov	r9, r3
 2001492:	4b81      	ldr	r3, [pc, #516]	; (2001698 <menu+0x29c>)
 2001494:	469a      	mov	sl, r3
 2001496:	e007      	b.n	20014a8 <menu+0xac>
 2001498:	4b80      	ldr	r3, [pc, #512]	; (200169c <menu+0x2a0>)
 200149a:	881b      	ldrh	r3, [r3, #0]
 200149c:	065b      	lsls	r3, r3, #25
 200149e:	d541      	bpl.n	2001524 <menu+0x128>
 20014a0:	4b7e      	ldr	r3, [pc, #504]	; (200169c <menu+0x2a0>)
 20014a2:	881b      	ldrh	r3, [r3, #0]
 20014a4:	07db      	lsls	r3, r3, #31
 20014a6:	d565      	bpl.n	2001574 <menu+0x178>
 20014a8:	4b7c      	ldr	r3, [pc, #496]	; (200169c <menu+0x2a0>)
 20014aa:	4698      	mov	r8, r3
 20014ac:	881b      	ldrh	r3, [r3, #0]
 20014ae:	079b      	lsls	r3, r3, #30
 20014b0:	d400      	bmi.n	20014b4 <menu+0xb8>
 20014b2:	e095      	b.n	20015e0 <menu+0x1e4>
 20014b4:	f000 f905 	bl	20016c2 <menu+0x2c6>
 20014b8:	f7ff fba2 	bl	2000c00 <drawclock>
 20014bc:	7839      	ldrb	r1, [r7, #0]
 20014be:	3107      	adds	r1, #7
 20014c0:	0609      	lsls	r1, r1, #24
 20014c2:	0e09      	lsrs	r1, r1, #24
 20014c4:	464a      	mov	r2, r9
 20014c6:	2000      	movs	r0, #0
 20014c8:	f000 f8fc 	bl	20016c4 <menu+0x2c8>
 20014cc:	4643      	mov	r3, r8
 20014ce:	881b      	ldrh	r3, [r3, #0]
 20014d0:	061b      	lsls	r3, r3, #24
 20014d2:	d4e1      	bmi.n	2001498 <menu+0x9c>
 20014d4:	7839      	ldrb	r1, [r7, #0]
 20014d6:	3107      	adds	r1, #7
 20014d8:	0609      	lsls	r1, r1, #24
 20014da:	0e09      	lsrs	r1, r1, #24
 20014dc:	4652      	mov	r2, sl
 20014de:	2000      	movs	r0, #0
 20014e0:	f000 f8f0 	bl	20016c4 <menu+0x2c8>
 20014e4:	7839      	ldrb	r1, [r7, #0]
 20014e6:	2905      	cmp	r1, #5
 20014e8:	d803      	bhi.n	20014f2 <menu+0xf6>
 20014ea:	3101      	adds	r1, #1
 20014ec:	0609      	lsls	r1, r1, #24
 20014ee:	0e09      	lsrs	r1, r1, #24
 20014f0:	7039      	strb	r1, [r7, #0]
 20014f2:	3107      	adds	r1, #7
 20014f4:	0609      	lsls	r1, r1, #24
 20014f6:	464a      	mov	r2, r9
 20014f8:	0e09      	lsrs	r1, r1, #24
 20014fa:	2000      	movs	r0, #0
 20014fc:	f000 f8e2 	bl	20016c4 <menu+0x2c8>
 2001500:	4b66      	ldr	r3, [pc, #408]	; (200169c <menu+0x2a0>)
 2001502:	881a      	ldrh	r2, [r3, #0]
 2001504:	0612      	lsls	r2, r2, #24
 2001506:	d4c7      	bmi.n	2001498 <menu+0x9c>
 2001508:	4698      	mov	r8, r3
 200150a:	2380      	movs	r3, #128	; 0x80
 200150c:	469b      	mov	fp, r3
 200150e:	f000 f8d8 	bl	20016c2 <menu+0x2c6>
 2001512:	4643      	mov	r3, r8
 2001514:	465a      	mov	r2, fp
 2001516:	881b      	ldrh	r3, [r3, #0]
 2001518:	421a      	tst	r2, r3
 200151a:	d0f8      	beq.n	200150e <menu+0x112>
 200151c:	4b5f      	ldr	r3, [pc, #380]	; (200169c <menu+0x2a0>)
 200151e:	881b      	ldrh	r3, [r3, #0]
 2001520:	065b      	lsls	r3, r3, #25
 2001522:	d4bd      	bmi.n	20014a0 <menu+0xa4>
 2001524:	7839      	ldrb	r1, [r7, #0]
 2001526:	3107      	adds	r1, #7
 2001528:	0609      	lsls	r1, r1, #24
 200152a:	0e09      	lsrs	r1, r1, #24
 200152c:	4a5a      	ldr	r2, [pc, #360]	; (2001698 <menu+0x29c>)
 200152e:	2000      	movs	r0, #0
 2001530:	f000 f8c8 	bl	20016c4 <menu+0x2c8>
 2001534:	7839      	ldrb	r1, [r7, #0]
 2001536:	2900      	cmp	r1, #0
 2001538:	d003      	beq.n	2001542 <menu+0x146>
 200153a:	3901      	subs	r1, #1
 200153c:	0609      	lsls	r1, r1, #24
 200153e:	0e09      	lsrs	r1, r1, #24
 2001540:	7039      	strb	r1, [r7, #0]
 2001542:	3107      	adds	r1, #7
 2001544:	0609      	lsls	r1, r1, #24
 2001546:	464a      	mov	r2, r9
 2001548:	0e09      	lsrs	r1, r1, #24
 200154a:	2000      	movs	r0, #0
 200154c:	f000 f8ba 	bl	20016c4 <menu+0x2c8>
 2001550:	4b52      	ldr	r3, [pc, #328]	; (200169c <menu+0x2a0>)
 2001552:	881a      	ldrh	r2, [r3, #0]
 2001554:	0652      	lsls	r2, r2, #25
 2001556:	d4a3      	bmi.n	20014a0 <menu+0xa4>
 2001558:	4698      	mov	r8, r3
 200155a:	2340      	movs	r3, #64	; 0x40
 200155c:	469b      	mov	fp, r3
 200155e:	f000 f8b0 	bl	20016c2 <menu+0x2c6>
 2001562:	4643      	mov	r3, r8
 2001564:	465a      	mov	r2, fp
 2001566:	881b      	ldrh	r3, [r3, #0]
 2001568:	421a      	tst	r2, r3
 200156a:	d0f8      	beq.n	200155e <menu+0x162>
 200156c:	4b4b      	ldr	r3, [pc, #300]	; (200169c <menu+0x2a0>)
 200156e:	881b      	ldrh	r3, [r3, #0]
 2001570:	07db      	lsls	r3, r3, #31
 2001572:	d499      	bmi.n	20014a8 <menu+0xac>
 2001574:	783b      	ldrb	r3, [r7, #0]
 2001576:	2b00      	cmp	r3, #0
 2001578:	d05a      	beq.n	2001630 <menu+0x234>
 200157a:	2b01      	cmp	r3, #1
 200157c:	d05d      	beq.n	200163a <menu+0x23e>
 200157e:	2b02      	cmp	r3, #2
 2001580:	d060      	beq.n	2001644 <menu+0x248>
 2001582:	2b03      	cmp	r3, #3
 2001584:	d063      	beq.n	200164e <menu+0x252>
 2001586:	2b04      	cmp	r3, #4
 2001588:	d066      	beq.n	2001658 <menu+0x25c>
 200158a:	2b05      	cmp	r3, #5
 200158c:	d01b      	beq.n	20015c6 <menu+0x1ca>
 200158e:	2b06      	cmp	r3, #6
 2001590:	d18a      	bne.n	20014a8 <menu+0xac>
 2001592:	2002      	movs	r0, #2
 2001594:	4b42      	ldr	r3, [pc, #264]	; (20016a0 <menu+0x2a4>)
 2001596:	f000 f893 	bl	20016c0 <menu+0x2c4>
 200159a:	4b42      	ldr	r3, [pc, #264]	; (20016a4 <menu+0x2a8>)
 200159c:	f000 f890 	bl	20016c0 <menu+0x2c4>
 20015a0:	2300      	movs	r3, #0
 20015a2:	4698      	mov	r8, r3
 20015a4:	f000 f88d 	bl	20016c2 <menu+0x2c6>
 20015a8:	4643      	mov	r3, r8
 20015aa:	0618      	lsls	r0, r3, #24
 20015ac:	0e00      	lsrs	r0, r0, #24
 20015ae:	f000 f88a 	bl	20016c6 <menu+0x2ca>
 20015b2:	2301      	movs	r3, #1
 20015b4:	469c      	mov	ip, r3
 20015b6:	44e0      	add	r8, ip
 20015b8:	4643      	mov	r3, r8
 20015ba:	2b10      	cmp	r3, #16
 20015bc:	d1f2      	bne.n	20015a4 <menu+0x1a8>
 20015be:	4b3a      	ldr	r3, [pc, #232]	; (20016a8 <menu+0x2ac>)
 20015c0:	f000 f87e 	bl	20016c0 <menu+0x2c4>
 20015c4:	e770      	b.n	20014a8 <menu+0xac>
 20015c6:	2500      	movs	r5, #0
 20015c8:	f000 f87b 	bl	20016c2 <menu+0x2c6>
 20015cc:	0628      	lsls	r0, r5, #24
 20015ce:	0e00      	lsrs	r0, r0, #24
 20015d0:	3501      	adds	r5, #1
 20015d2:	f000 f878 	bl	20016c6 <menu+0x2ca>
 20015d6:	2d10      	cmp	r5, #16
 20015d8:	d1f6      	bne.n	20015c8 <menu+0x1cc>
 20015da:	4b34      	ldr	r3, [pc, #208]	; (20016ac <menu+0x2b0>)
 20015dc:	f000 f870 	bl	20016c0 <menu+0x2c4>
 20015e0:	2000      	movs	r0, #0
 20015e2:	4b33      	ldr	r3, [pc, #204]	; (20016b0 <menu+0x2b4>)
 20015e4:	f000 f86c 	bl	20016c0 <menu+0x2c4>
 20015e8:	2004      	movs	r0, #4
 20015ea:	4b1f      	ldr	r3, [pc, #124]	; (2001668 <menu+0x26c>)
 20015ec:	f000 f868 	bl	20016c0 <menu+0x2c4>
 20015f0:	2002      	movs	r0, #2
 20015f2:	4b1f      	ldr	r3, [pc, #124]	; (2001670 <menu+0x274>)
 20015f4:	f000 f864 	bl	20016c0 <menu+0x2c4>
 20015f8:	4b2e      	ldr	r3, [pc, #184]	; (20016b4 <menu+0x2b8>)
 20015fa:	f000 f861 	bl	20016c0 <menu+0x2c4>
 20015fe:	4b2e      	ldr	r3, [pc, #184]	; (20016b8 <menu+0x2bc>)
 2001600:	f000 f85e 	bl	20016c0 <menu+0x2c4>
 2001604:	2003      	movs	r0, #3
 2001606:	4b26      	ldr	r3, [pc, #152]	; (20016a0 <menu+0x2a4>)
 2001608:	f000 f85a 	bl	20016c0 <menu+0x2c4>
 200160c:	2510      	movs	r5, #16
 200160e:	f000 f858 	bl	20016c2 <menu+0x2c6>
 2001612:	0628      	lsls	r0, r5, #24
 2001614:	0e00      	lsrs	r0, r0, #24
 2001616:	3d01      	subs	r5, #1
 2001618:	f000 f855 	bl	20016c6 <menu+0x2ca>
 200161c:	2d00      	cmp	r5, #0
 200161e:	d1f6      	bne.n	200160e <menu+0x212>
 2001620:	bc3c      	pop	{r2, r3, r4, r5}
 2001622:	4690      	mov	r8, r2
 2001624:	4699      	mov	r9, r3
 2001626:	46a2      	mov	sl, r4
 2001628:	46ab      	mov	fp, r5
 200162a:	bcf8      	pop	{r3, r4, r5, r6, r7}
 200162c:	bc01      	pop	{r0}
 200162e:	4700      	bx	r0
 2001630:	f7ff fdba 	bl	20011a8 <ControllerSettings>
 2001634:	783b      	ldrb	r3, [r7, #0]
 2001636:	2b01      	cmp	r3, #1
 2001638:	d1a1      	bne.n	200157e <menu+0x182>
 200163a:	f7ff f8d7 	bl	20007ec <DisplaySettings>
 200163e:	783b      	ldrb	r3, [r7, #0]
 2001640:	2b02      	cmp	r3, #2
 2001642:	d19e      	bne.n	2001582 <menu+0x186>
 2001644:	f7fe fecc 	bl	20003e0 <OtherSettings>
 2001648:	783b      	ldrb	r3, [r7, #0]
 200164a:	2b03      	cmp	r3, #3
 200164c:	d19b      	bne.n	2001586 <menu+0x18a>
 200164e:	f7fe fe19 	bl	2000284 <help>
 2001652:	783b      	ldrb	r3, [r7, #0]
 2001654:	2b04      	cmp	r3, #4
 2001656:	d198      	bne.n	200158a <menu+0x18e>
 2001658:	4b18      	ldr	r3, [pc, #96]	; (20016bc <menu+0x2c0>)
 200165a:	f000 f831 	bl	20016c0 <menu+0x2c4>
 200165e:	783b      	ldrb	r3, [r7, #0]
 2001660:	e793      	b.n	200158a <menu+0x18e>
 2001662:	46c0      	nop			; (mov r8, r8)
 2001664:	0200270d 	andeq	r2, r0, #3407872	; 0x340000
 2001668:	020033bd 	andeq	r3, r0, #-201326590	; 0xf4000002
 200166c:	020027ed 	andeq	r2, r0, #62128128	; 0x3b40000
 2001670:	02003411 	andeq	r3, r0, #285212672	; 0x11000000
 2001674:	0300105f 	movweq	r1, #95	; 0x5f
 2001678:	030013f8 	movweq	r1, #1016	; 0x3f8
 200167c:	02002791 	andeq	r2, r0, #38010880	; 0x2440000
 2001680:	0200d24c 	andeq	sp, r0, #76, 4	; 0xc0000004
 2001684:	0200d23c 	andeq	sp, r0, #60, 4	; 0xc0000003
 2001688:	03001058 	movweq	r1, #88	; 0x58
 200168c:	02002509 	andeq	r2, r0, #37748736	; 0x2400000
 2001690:	02004641 	andeq	r4, r0, #68157440	; 0x4100000
 2001694:	0200f410 	andeq	pc, r0, #16, 8	; 0x10000000
 2001698:	0200f438 	andeq	pc, r0, #56, 8	; 0x38000000
 200169c:	04000130 	streq	r0, [r0], #-304	; 0xfffffed0
 20016a0:	02004825 	andeq	r4, r0, #2424832	; 0x250000
 20016a4:	020047ed 	andeq	r4, r0, #62128128	; 0x3b40000
 20016a8:	020041c9 	andeq	r4, r0, #1073741874	; 0x40000032
 20016ac:	0200022d 	andeq	r0, r0, #-805306366	; 0xd0000002
 20016b0:	02002b17 	andeq	r2, r0, #23552	; 0x5c00
 20016b4:	020033f5 	andeq	r3, r0, #-738197501	; 0xd4000003
 20016b8:	02002435 	andeq	r2, r0, #889192448	; 0x35000000
 20016bc:	02004215 	andeq	r4, r0, #1342177281	; 0x50000001
 20016c0:	4718      	bx	r3
 20016c2:	4720      	bx	r4
 20016c4:	4728      	bx	r5
 20016c6:	4730      	bx	r6
 20016c8:	4738      	bx	r7
 20016ca:	4748      	bx	r9

020016cc <Keypad>:
 20016cc:	4b36      	ldr	r3, [pc, #216]	; (20017a8 <Keypad+0xdc>)
 20016ce:	4a37      	ldr	r2, [pc, #220]	; (20017ac <Keypad+0xe0>)
 20016d0:	881b      	ldrh	r3, [r3, #0]
 20016d2:	6812      	ldr	r2, [r2, #0]
 20016d4:	7851      	ldrb	r1, [r2, #1]
 20016d6:	07db      	lsls	r3, r3, #31
 20016d8:	d437      	bmi.n	200174a <Keypad+0x7e>
 20016da:	2001      	movs	r0, #1
 20016dc:	4b34      	ldr	r3, [pc, #208]	; (20017b0 <Keypad+0xe4>)
 20016de:	5458      	strb	r0, [r3, r1]
 20016e0:	4931      	ldr	r1, [pc, #196]	; (20017a8 <Keypad+0xdc>)
 20016e2:	8808      	ldrh	r0, [r1, #0]
 20016e4:	7891      	ldrb	r1, [r2, #2]
 20016e6:	0780      	lsls	r0, r0, #30
 20016e8:	d437      	bmi.n	200175a <Keypad+0x8e>
 20016ea:	2001      	movs	r0, #1
 20016ec:	5458      	strb	r0, [r3, r1]
 20016ee:	492e      	ldr	r1, [pc, #184]	; (20017a8 <Keypad+0xdc>)
 20016f0:	8808      	ldrh	r0, [r1, #0]
 20016f2:	78d1      	ldrb	r1, [r2, #3]
 20016f4:	0640      	lsls	r0, r0, #25
 20016f6:	d437      	bmi.n	2001768 <Keypad+0x9c>
 20016f8:	2001      	movs	r0, #1
 20016fa:	5458      	strb	r0, [r3, r1]
 20016fc:	492a      	ldr	r1, [pc, #168]	; (20017a8 <Keypad+0xdc>)
 20016fe:	8808      	ldrh	r0, [r1, #0]
 2001700:	7911      	ldrb	r1, [r2, #4]
 2001702:	0600      	lsls	r0, r0, #24
 2001704:	d437      	bmi.n	2001776 <Keypad+0xaa>
 2001706:	2001      	movs	r0, #1
 2001708:	5458      	strb	r0, [r3, r1]
 200170a:	4927      	ldr	r1, [pc, #156]	; (20017a8 <Keypad+0xdc>)
 200170c:	8808      	ldrh	r0, [r1, #0]
 200170e:	7951      	ldrb	r1, [r2, #5]
 2001710:	0680      	lsls	r0, r0, #26
 2001712:	d437      	bmi.n	2001784 <Keypad+0xb8>
 2001714:	2001      	movs	r0, #1
 2001716:	5458      	strb	r0, [r3, r1]
 2001718:	4923      	ldr	r1, [pc, #140]	; (20017a8 <Keypad+0xdc>)
 200171a:	8808      	ldrh	r0, [r1, #0]
 200171c:	7991      	ldrb	r1, [r2, #6]
 200171e:	06c0      	lsls	r0, r0, #27
 2001720:	d437      	bmi.n	2001792 <Keypad+0xc6>
 2001722:	2001      	movs	r0, #1
 2001724:	5458      	strb	r0, [r3, r1]
 2001726:	4920      	ldr	r1, [pc, #128]	; (20017a8 <Keypad+0xdc>)
 2001728:	8808      	ldrh	r0, [r1, #0]
 200172a:	79d1      	ldrb	r1, [r2, #7]
 200172c:	0740      	lsls	r0, r0, #29
 200172e:	d437      	bmi.n	20017a0 <Keypad+0xd4>
 2001730:	2001      	movs	r0, #1
 2001732:	5458      	strb	r0, [r3, r1]
 2001734:	491c      	ldr	r1, [pc, #112]	; (20017a8 <Keypad+0xdc>)
 2001736:	8809      	ldrh	r1, [r1, #0]
 2001738:	7a12      	ldrb	r2, [r2, #8]
 200173a:	0709      	lsls	r1, r1, #28
 200173c:	d402      	bmi.n	2001744 <Keypad+0x78>
 200173e:	2101      	movs	r1, #1
 2001740:	5499      	strb	r1, [r3, r2]
 2001742:	4770      	bx	lr
 2001744:	2100      	movs	r1, #0
 2001746:	5499      	strb	r1, [r3, r2]
 2001748:	e7fb      	b.n	2001742 <Keypad+0x76>
 200174a:	2000      	movs	r0, #0
 200174c:	4b18      	ldr	r3, [pc, #96]	; (20017b0 <Keypad+0xe4>)
 200174e:	5458      	strb	r0, [r3, r1]
 2001750:	4915      	ldr	r1, [pc, #84]	; (20017a8 <Keypad+0xdc>)
 2001752:	8808      	ldrh	r0, [r1, #0]
 2001754:	7891      	ldrb	r1, [r2, #2]
 2001756:	0780      	lsls	r0, r0, #30
 2001758:	d5c7      	bpl.n	20016ea <Keypad+0x1e>
 200175a:	2000      	movs	r0, #0
 200175c:	5458      	strb	r0, [r3, r1]
 200175e:	4912      	ldr	r1, [pc, #72]	; (20017a8 <Keypad+0xdc>)
 2001760:	8808      	ldrh	r0, [r1, #0]
 2001762:	78d1      	ldrb	r1, [r2, #3]
 2001764:	0640      	lsls	r0, r0, #25
 2001766:	d5c7      	bpl.n	20016f8 <Keypad+0x2c>
 2001768:	2000      	movs	r0, #0
 200176a:	5458      	strb	r0, [r3, r1]
 200176c:	490e      	ldr	r1, [pc, #56]	; (20017a8 <Keypad+0xdc>)
 200176e:	8808      	ldrh	r0, [r1, #0]
 2001770:	7911      	ldrb	r1, [r2, #4]
 2001772:	0600      	lsls	r0, r0, #24
 2001774:	d5c7      	bpl.n	2001706 <Keypad+0x3a>
 2001776:	2000      	movs	r0, #0
 2001778:	5458      	strb	r0, [r3, r1]
 200177a:	490b      	ldr	r1, [pc, #44]	; (20017a8 <Keypad+0xdc>)
 200177c:	8808      	ldrh	r0, [r1, #0]
 200177e:	7951      	ldrb	r1, [r2, #5]
 2001780:	0680      	lsls	r0, r0, #26
 2001782:	d5c7      	bpl.n	2001714 <Keypad+0x48>
 2001784:	2000      	movs	r0, #0
 2001786:	5458      	strb	r0, [r3, r1]
 2001788:	4907      	ldr	r1, [pc, #28]	; (20017a8 <Keypad+0xdc>)
 200178a:	8808      	ldrh	r0, [r1, #0]
 200178c:	7991      	ldrb	r1, [r2, #6]
 200178e:	06c0      	lsls	r0, r0, #27
 2001790:	d5c7      	bpl.n	2001722 <Keypad+0x56>
 2001792:	2000      	movs	r0, #0
 2001794:	5458      	strb	r0, [r3, r1]
 2001796:	4904      	ldr	r1, [pc, #16]	; (20017a8 <Keypad+0xdc>)
 2001798:	8808      	ldrh	r0, [r1, #0]
 200179a:	79d1      	ldrb	r1, [r2, #7]
 200179c:	0740      	lsls	r0, r0, #29
 200179e:	d5c7      	bpl.n	2001730 <Keypad+0x64>
 20017a0:	2000      	movs	r0, #0
 20017a2:	5458      	strb	r0, [r3, r1]
 20017a4:	e7c6      	b.n	2001734 <Keypad+0x68>
 20017a6:	46c0      	nop			; (mov r8, r8)
 20017a8:	04000130 	streq	r0, [r0], #-304	; 0xfffffed0
 20017ac:	030012a4 	movweq	r1, #676	; 0x2a4
 20017b0:	03001060 	movweq	r1, #96	; 0x60

020017b4 <MiscKeys>:
 20017b4:	4770      	bx	lr
 20017b6:	46c0      	nop			; (mov r8, r8)

020017b8 <_00>:
 20017b8:	e59f11e0 	ldr	r1, [pc, #480]	; 20019a0 <_25+0x20>
 20017bc:	e3a00001 	mov	r0, #1
 20017c0:	e5810000 	str	r0, [r1]
 20017c4:	e8bd01ff 	pop	{r0, r1, r2, r3, r4, r5, r6, r7, r8}
 20017c8:	e12fff1e 	bx	lr

020017cc <_03>:
 20017cc:	e3a05000 	mov	r5, #0
 20017d0:	e1d010b0 	ldrh	r1, [r0]
 20017d4:	e59f01c8 	ldr	r0, [pc, #456]	; 20019a4 <_25+0x24>
 20017d8:	e1d000b0 	ldrh	r0, [r0]
 20017dc:	e52de004 	push	{lr}		; (str lr, [sp, #-4]!)
 20017e0:	eb002a53 	bl	200c134 <__ROM_from_arm>
 20017e4:	e49de004 	pop	{lr}		; (ldr lr, [sp], #4)
 20017e8:	e59f31b8 	ldr	r3, [pc, #440]	; 20019a8 <_25+0x28>
 20017ec:	e1d320b0 	ldrh	r2, [r3]
 20017f0:	e1814005 	orr	r4, r1, r5
 20017f4:	e1844003 	orr	r4, r4, r3
 20017f8:	e59f01a4 	ldr	r0, [pc, #420]	; 20019a4 <_25+0x24>
 20017fc:	e1c040b0 	strh	r4, [r0]
 2001800:	e59f1198 	ldr	r1, [pc, #408]	; 20019a0 <_25+0x20>
 2001804:	e3a00001 	mov	r0, #1
 2001808:	e5810000 	str	r0, [r1]
 200180c:	e8bd01ff 	pop	{r0, r1, r2, r3, r4, r5, r6, r7, r8}
 2001810:	e12fff1e 	bx	lr

02001814 <_05>:
 2001814:	e59f0190 	ldr	r0, [pc, #400]	; 20019ac <_25+0x2c>
 2001818:	e3a01001 	mov	r1, #1
 200181c:	e5c01000 	strb	r1, [r0]
 2001820:	e59f1178 	ldr	r1, [pc, #376]	; 20019a0 <_25+0x20>
 2001824:	e3a00001 	mov	r0, #1
 2001828:	e5810000 	str	r0, [r1]
 200182c:	e8bd01ff 	pop	{r0, r1, r2, r3, r4, r5, r6, r7, r8}
 2001830:	e12fff1e 	bx	lr

02001834 <_07>:
 2001834:	e59f0174 	ldr	r0, [pc, #372]	; 20019b0 <_25+0x30>
 2001838:	e5d01000 	ldrb	r1, [r0]
 200183c:	e2411001 	sub	r1, r1, #1
 2001840:	e5c01000 	strb	r1, [r0]
 2001844:	e59f1154 	ldr	r1, [pc, #340]	; 20019a0 <_25+0x20>
 2001848:	e3a00001 	mov	r0, #1
 200184c:	e5810000 	str	r0, [r1]
 2001850:	e8bd01ff 	pop	{r0, r1, r2, r3, r4, r5, r6, r7, r8}
 2001854:	e12fff1e 	bx	lr

02001858 <_08>:
 2001858:	e59f0154 	ldr	r0, [pc, #340]	; 20019b4 <_25+0x34>
 200185c:	e59f1154 	ldr	r1, [pc, #340]	; 20019b8 <_25+0x38>
 2001860:	e5d11000 	ldrb	r1, [r1]
 2001864:	e0800001 	add	r0, r0, r1
 2001868:	e59f014c 	ldr	r0, [pc, #332]	; 20019bc <_25+0x3c>
 200186c:	e1a01000 	mov	r1, r0
 2001870:	e5d11000 	ldrb	r1, [r1]
 2001874:	e201103f 	and	r1, r1, #63	; 0x3f
 2001878:	e59f1120 	ldr	r1, [pc, #288]	; 20019a0 <_25+0x20>
 200187c:	e3a00001 	mov	r0, #1
 2001880:	e5810000 	str	r0, [r1]
 2001884:	e8bd01ff 	pop	{r0, r1, r2, r3, r4, r5, r6, r7, r8}
 2001888:	e12fff1e 	bx	lr

0200188c <_12>:
 200188c:	e59f0118 	ldr	r0, [pc, #280]	; 20019ac <_25+0x2c>
 2001890:	e3a01000 	mov	r1, #0
 2001894:	e5c01000 	strb	r1, [r0]
 2001898:	e59f1100 	ldr	r1, [pc, #256]	; 20019a0 <_25+0x20>
 200189c:	e3a00001 	mov	r0, #1
 20018a0:	e5810000 	str	r0, [r1]
 20018a4:	e8bd01ff 	pop	{r0, r1, r2, r3, r4, r5, r6, r7, r8}
 20018a8:	e12fff1e 	bx	lr

020018ac <_16>:
 20018ac:	e59f00fc 	ldr	r0, [pc, #252]	; 20019b0 <_25+0x30>
 20018b0:	e1a00000 	nop			; (mov r0, r0)
 20018b4:	e5d01000 	ldrb	r1, [r0]
 20018b8:	e2811001 	add	r1, r1, #1
 20018bc:	e20110ff 	and	r1, r1, #255	; 0xff
 20018c0:	e5c01000 	strb	r1, [r0]
 20018c4:	e59f10d4 	ldr	r1, [pc, #212]	; 20019a0 <_25+0x20>
 20018c8:	e3a00001 	mov	r0, #1
 20018cc:	e5810000 	str	r0, [r1]
 20018d0:	e8bd01ff 	pop	{r0, r1, r2, r3, r4, r5, r6, r7, r8}
 20018d4:	e12fff1e 	bx	lr

020018d8 <_18>:
 20018d8:	e59f00d4 	ldr	r0, [pc, #212]	; 20019b4 <_25+0x34>
 20018dc:	e59f10d4 	ldr	r1, [pc, #212]	; 20019b8 <_25+0x38>
 20018e0:	e5d11000 	ldrb	r1, [r1]
 20018e4:	e2411008 	sub	r1, r1, #8
 20018e8:	e0800001 	add	r0, r0, r1
 20018ec:	e1a00000 	nop			; (mov r0, r0)
 20018f0:	e5d01000 	ldrb	r1, [r0]
 20018f4:	e2811001 	add	r1, r1, #1
 20018f8:	e20110ff 	and	r1, r1, #255	; 0xff
 20018fc:	e5c01000 	strb	r1, [r0]
 2001900:	e59f1098 	ldr	r1, [pc, #152]	; 20019a0 <_25+0x20>
 2001904:	e3a00001 	mov	r0, #1
 2001908:	e5810000 	str	r0, [r1]
 200190c:	e8bd01ff 	pop	{r0, r1, r2, r3, r4, r5, r6, r7, r8}
 2001910:	e12fff1e 	bx	lr

02001914 <_20>:
 2001914:	e59f0098 	ldr	r0, [pc, #152]	; 20019b4 <_25+0x34>
 2001918:	e59f1098 	ldr	r1, [pc, #152]	; 20019b8 <_25+0x38>
 200191c:	e5d11000 	ldrb	r1, [r1]
 2001920:	e0800001 	add	r0, r0, r1
 2001924:	e59f1074 	ldr	r1, [pc, #116]	; 20019a0 <_25+0x20>
 2001928:	e3a00001 	mov	r0, #1
 200192c:	e5810000 	str	r0, [r1]
 2001930:	e8bd01ff 	pop	{r0, r1, r2, r3, r4, r5, r6, r7, r8}
 2001934:	e12fff1e 	bx	lr

02001938 <_23>:
 2001938:	e3a05c01 	mov	r5, #256	; 0x100
 200193c:	e1d010b0 	ldrh	r1, [r0]
 2001940:	e59f005c 	ldr	r0, [pc, #92]	; 20019a4 <_25+0x24>
 2001944:	e1d000b0 	ldrh	r0, [r0]
 2001948:	e52de004 	push	{lr}		; (str lr, [sp, #-4]!)
 200194c:	eb0029f8 	bl	200c134 <__ROM_from_arm>
 2001950:	e49de004 	pop	{lr}		; (ldr lr, [sp], #4)
 2001954:	e59f304c 	ldr	r3, [pc, #76]	; 20019a8 <_25+0x28>
 2001958:	e1d320b0 	ldrh	r2, [r3]
 200195c:	e1814005 	orr	r4, r1, r5
 2001960:	e1844003 	orr	r4, r4, r3
 2001964:	e59f0038 	ldr	r0, [pc, #56]	; 20019a4 <_25+0x24>
 2001968:	e1c040b0 	strh	r4, [r0]
 200196c:	e59f102c 	ldr	r1, [pc, #44]	; 20019a0 <_25+0x20>
 2001970:	e3a00001 	mov	r0, #1
 2001974:	e5810000 	str	r0, [r1]
 2001978:	e8bd01ff 	pop	{r0, r1, r2, r3, r4, r5, r6, r7, r8}
 200197c:	e12fff1e 	bx	lr

02001980 <_25>:
 2001980:	e59f0028 	ldr	r0, [pc, #40]	; 20019b0 <_25+0x30>
 2001984:	e3a01000 	mov	r1, #0
 2001988:	e5c01000 	strb	r1, [r0]
 200198c:	e59f100c 	ldr	r1, [pc, #12]	; 20019a0 <_25+0x20>
 2001990:	e3a00001 	mov	r0, #1
 2001994:	e5810000 	str	r0, [r1]
 2001998:	e8bd01ff 	pop	{r0, r1, r2, r3, r4, r5, r6, r7, r8}
 200199c:	e12fff1e 	bx	lr
 20019a0:	03001070 	movweq	r1, #112	; 0x70
 20019a4:	030010d2 	movweq	r1, #210	; 0xd2
 20019a8:	030010e4 	movweq	r1, #228	; 0xe4
 20019ac:	030010d0 	movweq	r1, #208	; 0xd0
 20019b0:	03001076 	movweq	r1, #118	; 0x76
 20019b4:	0300107c 	movweq	r1, #124	; 0x7c
 20019b8:	03001077 	movweq	r1, #119	; 0x77
 20019bc:	0300108c 	movweq	r1, #140	; 0x8c

020019c0 <_28>:
 20019c0:	e59f0a24 	ldr	r0, [pc, #2596]	; 20023ec <execute+0x20>
 20019c4:	e59f1a24 	ldr	r1, [pc, #2596]	; 20023f0 <execute+0x24>
 20019c8:	e5d11000 	ldrb	r1, [r1]
 20019cc:	e2411008 	sub	r1, r1, #8
 20019d0:	e0800001 	add	r0, r0, r1
 20019d4:	e59f1a18 	ldr	r1, [pc, #2584]	; 20023f4 <execute+0x28>
 20019d8:	e59f2a18 	ldr	r2, [pc, #2584]	; 20023f8 <execute+0x2c>
 20019dc:	e5d23000 	ldrb	r3, [r2]
 20019e0:	e5c13000 	strb	r3, [r1]
 20019e4:	e59f1a0c 	ldr	r1, [pc, #2572]	; 20023f8 <execute+0x2c>
 20019e8:	e5d02000 	ldrb	r2, [r0]
 20019ec:	e5c12000 	strb	r2, [r1]
 20019f0:	e59f19fc 	ldr	r1, [pc, #2556]	; 20023f4 <execute+0x28>
 20019f4:	e5d12000 	ldrb	r2, [r1]
 20019f8:	e5c02000 	strb	r2, [r0]
 20019fc:	e59f19f8 	ldr	r1, [pc, #2552]	; 20023fc <execute+0x30>
 2001a00:	e3a00001 	mov	r0, #1
 2001a04:	e5810000 	str	r0, [r1]
 2001a08:	e8bd01ff 	pop	{r0, r1, r2, r3, r4, r5, r6, r7, r8}
 2001a0c:	e12fff1e 	bx	lr

02001a10 <_30>:
 2001a10:	e3a05c02 	mov	r5, #512	; 0x200
 2001a14:	e1d010b0 	ldrh	r1, [r0]
 2001a18:	e59f09e0 	ldr	r0, [pc, #2528]	; 2002400 <execute+0x34>
 2001a1c:	e1d000b0 	ldrh	r0, [r0]
 2001a20:	e52de004 	push	{lr}		; (str lr, [sp, #-4]!)
 2001a24:	eb0029c2 	bl	200c134 <__ROM_from_arm>
 2001a28:	e49de004 	pop	{lr}		; (ldr lr, [sp], #4)
 2001a2c:	e59f39d0 	ldr	r3, [pc, #2512]	; 2002404 <execute+0x38>
 2001a30:	e1d320b0 	ldrh	r2, [r3]
 2001a34:	e1814005 	orr	r4, r1, r5
 2001a38:	e1844003 	orr	r4, r4, r3
 2001a3c:	e59f09bc 	ldr	r0, [pc, #2492]	; 2002400 <execute+0x34>
 2001a40:	e1c040b0 	strh	r4, [r0]
 2001a44:	e59f19b0 	ldr	r1, [pc, #2480]	; 20023fc <execute+0x30>
 2001a48:	e3a00001 	mov	r0, #1
 2001a4c:	e5810000 	str	r0, [r1]
 2001a50:	e8bd01ff 	pop	{r0, r1, r2, r3, r4, r5, r6, r7, r8}
 2001a54:	e12fff1e 	bx	lr

02001a58 <_45>:
 2001a58:	e59f0998 	ldr	r0, [pc, #2456]	; 20023f8 <execute+0x2c>
 2001a5c:	e52d0004 	push	{r0}		; (str r0, [sp, #-4]!)
 2001a60:	e5d00000 	ldrb	r0, [r0]
 2001a64:	e92d5000 	push	{ip, lr}
 2001a68:	eb00299d 	bl	200c0e4 <__hrt_SwapNibbles_from_arm>
 2001a6c:	e49de004 	pop	{lr}		; (ldr lr, [sp], #4)
 2001a70:	e1a01000 	mov	r1, r0
 2001a74:	e49d0004 	pop	{r0}		; (ldr r0, [sp], #4)
 2001a78:	e5c01000 	strb	r1, [r0]
 2001a7c:	e59f1978 	ldr	r1, [pc, #2424]	; 20023fc <execute+0x30>
 2001a80:	e3a00001 	mov	r0, #1
 2001a84:	e5810000 	str	r0, [r1]
 2001a88:	e8bd01ff 	pop	{r0, r1, r2, r3, r4, r5, r6, r7, r8}
 2001a8c:	e12fff1e 	bx	lr

02001a90 <_48>:
 2001a90:	e3a05c03 	mov	r5, #768	; 0x300
 2001a94:	e1d010b0 	ldrh	r1, [r0]
 2001a98:	e59f0960 	ldr	r0, [pc, #2400]	; 2002400 <execute+0x34>
 2001a9c:	e1d000b0 	ldrh	r0, [r0]
 2001aa0:	e52de004 	push	{lr}		; (str lr, [sp, #-4]!)
 2001aa4:	eb0029a2 	bl	200c134 <__ROM_from_arm>
 2001aa8:	e49de004 	pop	{lr}		; (ldr lr, [sp], #4)
 2001aac:	e59f3950 	ldr	r3, [pc, #2384]	; 2002404 <execute+0x38>
 2001ab0:	e1d320b0 	ldrh	r2, [r3]
 2001ab4:	e1814005 	orr	r4, r1, r5
 2001ab8:	e1844003 	orr	r4, r4, r3
 2001abc:	e59f093c 	ldr	r0, [pc, #2364]	; 2002400 <execute+0x34>
 2001ac0:	e1c040b0 	strh	r4, [r0]
 2001ac4:	e59f1930 	ldr	r1, [pc, #2352]	; 20023fc <execute+0x30>
 2001ac8:	e3a00001 	mov	r0, #1
 2001acc:	e5810000 	str	r0, [r1]
 2001ad0:	e8bd01ff 	pop	{r0, r1, r2, r3, r4, r5, r6, r7, r8}
 2001ad4:	e12fff1e 	bx	lr

02001ad8 <_65>:
 2001ad8:	e3a05b01 	mov	r5, #1024	; 0x400
 2001adc:	e1d010b0 	ldrh	r1, [r0]
 2001ae0:	e59f0918 	ldr	r0, [pc, #2328]	; 2002400 <execute+0x34>
 2001ae4:	e1d000b0 	ldrh	r0, [r0]
 2001ae8:	e52de004 	push	{lr}		; (str lr, [sp, #-4]!)
 2001aec:	eb002990 	bl	200c134 <__ROM_from_arm>
 2001af0:	e49de004 	pop	{lr}		; (ldr lr, [sp], #4)
 2001af4:	e59f3908 	ldr	r3, [pc, #2312]	; 2002404 <execute+0x38>
 2001af8:	e1d320b0 	ldrh	r2, [r3]
 2001afc:	e1814005 	orr	r4, r1, r5
 2001b00:	e1844003 	orr	r4, r4, r3
 2001b04:	e59f08f4 	ldr	r0, [pc, #2292]	; 2002400 <execute+0x34>
 2001b08:	e1c040b0 	strh	r4, [r0]
 2001b0c:	e59f18e8 	ldr	r1, [pc, #2280]	; 20023fc <execute+0x30>
 2001b10:	e3a00002 	mov	r0, #2
 2001b14:	e5810000 	str	r0, [r1]
 2001b18:	e8bd01ff 	pop	{r0, r1, r2, r3, r4, r5, r6, r7, r8}
 2001b1c:	e12fff1e 	bx	lr

02001b20 <_85>:
 2001b20:	e59f08e0 	ldr	r0, [pc, #2272]	; 2002408 <execute+0x3c>
 2001b24:	e3a01000 	mov	r1, #0
 2001b28:	e5c01000 	strb	r1, [r0]
 2001b2c:	e59f18c8 	ldr	r1, [pc, #2248]	; 20023fc <execute+0x30>
 2001b30:	e3a00001 	mov	r0, #1
 2001b34:	e5810000 	str	r0, [r1]
 2001b38:	e8bd01ff 	pop	{r0, r1, r2, r3, r4, r5, r6, r7, r8}
 2001b3c:	e12fff1e 	bx	lr

02001b40 <_86>:
 2001b40:	e59f08c4 	ldr	r0, [pc, #2244]	; 200240c <execute+0x40>
 2001b44:	e3a01000 	mov	r1, #0
 2001b48:	e5c01000 	strb	r1, [r0]
 2001b4c:	e59f18a8 	ldr	r1, [pc, #2216]	; 20023fc <execute+0x30>
 2001b50:	e3a00001 	mov	r0, #1
 2001b54:	e5810000 	str	r0, [r1]
 2001b58:	e8bd01ff 	pop	{r0, r1, r2, r3, r4, r5, r6, r7, r8}
 2001b5c:	e12fff1e 	bx	lr

02001b60 <_99>:
 2001b60:	e3a05c05 	mov	r5, #1280	; 0x500
 2001b64:	e1d010b0 	ldrh	r1, [r0]
 2001b68:	e59f0890 	ldr	r0, [pc, #2192]	; 2002400 <execute+0x34>
 2001b6c:	e1d000b0 	ldrh	r0, [r0]
 2001b70:	e52de004 	push	{lr}		; (str lr, [sp, #-4]!)
 2001b74:	eb00296e 	bl	200c134 <__ROM_from_arm>
 2001b78:	e49de004 	pop	{lr}		; (ldr lr, [sp], #4)
 2001b7c:	e59f3880 	ldr	r3, [pc, #2176]	; 2002404 <execute+0x38>
 2001b80:	e1d320b0 	ldrh	r2, [r3]
 2001b84:	e1814005 	orr	r4, r1, r5
 2001b88:	e1844003 	orr	r4, r4, r3
 2001b8c:	e59f086c 	ldr	r0, [pc, #2156]	; 2002400 <execute+0x34>
 2001b90:	e1c040b0 	strh	r4, [r0]
 2001b94:	e59f1860 	ldr	r1, [pc, #2144]	; 20023fc <execute+0x30>
 2001b98:	e3a00002 	mov	r0, #2
 2001b9c:	e5810000 	str	r0, [r1]
 2001ba0:	e8bd01ff 	pop	{r0, r1, r2, r3, r4, r5, r6, r7, r8}
 2001ba4:	e12fff1e 	bx	lr

02001ba8 <_A5>:
 2001ba8:	e59f0860 	ldr	r0, [pc, #2144]	; 2002410 <execute+0x44>
 2001bac:	e3a01000 	mov	r1, #0
 2001bb0:	e5c01000 	strb	r1, [r0]
 2001bb4:	e59f1840 	ldr	r1, [pc, #2112]	; 20023fc <execute+0x30>
 2001bb8:	e3a00001 	mov	r0, #1
 2001bbc:	e5810000 	str	r0, [r1]
 2001bc0:	e8bd01ff 	pop	{r0, r1, r2, r3, r4, r5, r6, r7, r8}
 2001bc4:	e12fff1e 	bx	lr

02001bc8 <_A7>:
 2001bc8:	e59f081c 	ldr	r0, [pc, #2076]	; 20023ec <execute+0x20>
 2001bcc:	e59f1824 	ldr	r1, [pc, #2084]	; 20023f8 <execute+0x2c>
 2001bd0:	e5d11000 	ldrb	r1, [r1]
 2001bd4:	e5c01000 	strb	r1, [r0]
 2001bd8:	e59f181c 	ldr	r1, [pc, #2076]	; 20023fc <execute+0x30>
 2001bdc:	e3a00001 	mov	r0, #1
 2001be0:	e5810000 	str	r0, [r1]
 2001be4:	e8bd01ff 	pop	{r0, r1, r2, r3, r4, r5, r6, r7, r8}
 2001be8:	e12fff1e 	bx	lr

02001bec <_A9>:
 2001bec:	e59f0820 	ldr	r0, [pc, #2080]	; 2002414 <execute+0x48>
 2001bf0:	e59f1800 	ldr	r1, [pc, #2048]	; 20023f8 <execute+0x2c>
 2001bf4:	e5d11000 	ldrb	r1, [r1]
 2001bf8:	e5c01000 	strb	r1, [r0]
 2001bfc:	e59f17f8 	ldr	r1, [pc, #2040]	; 20023fc <execute+0x30>
 2001c00:	e3a00001 	mov	r0, #1
 2001c04:	e5810000 	str	r0, [r1]
 2001c08:	e8bd01ff 	pop	{r0, r1, r2, r3, r4, r5, r6, r7, r8}
 2001c0c:	e12fff1e 	bx	lr

02001c10 <_AA>:
 2001c10:	e59f0800 	ldr	r0, [pc, #2048]	; 2002418 <execute+0x4c>
 2001c14:	e59f17dc 	ldr	r1, [pc, #2012]	; 20023f8 <execute+0x2c>
 2001c18:	e5d11000 	ldrb	r1, [r1]
 2001c1c:	e5c01000 	strb	r1, [r0]
 2001c20:	e59f17d4 	ldr	r1, [pc, #2004]	; 20023fc <execute+0x30>
 2001c24:	e3a00001 	mov	r0, #1
 2001c28:	e5810000 	str	r0, [r1]
 2001c2c:	e8bd01ff 	pop	{r0, r1, r2, r3, r4, r5, r6, r7, r8}
 2001c30:	e12fff1e 	bx	lr

02001c34 <_AB>:
 2001c34:	e59f07e0 	ldr	r0, [pc, #2016]	; 200241c <execute+0x50>
 2001c38:	e59f17b8 	ldr	r1, [pc, #1976]	; 20023f8 <execute+0x2c>
 2001c3c:	e5d11000 	ldrb	r1, [r1]
 2001c40:	e5c01000 	strb	r1, [r0]
 2001c44:	e59f17b0 	ldr	r1, [pc, #1968]	; 20023fc <execute+0x30>
 2001c48:	e3a00001 	mov	r0, #1
 2001c4c:	e5810000 	str	r0, [r1]
 2001c50:	e8bd01ff 	pop	{r0, r1, r2, r3, r4, r5, r6, r7, r8}
 2001c54:	e12fff1e 	bx	lr

02001c58 <_AC>:
 2001c58:	e59f07c0 	ldr	r0, [pc, #1984]	; 2002420 <execute+0x54>
 2001c5c:	e59f1794 	ldr	r1, [pc, #1940]	; 20023f8 <execute+0x2c>
 2001c60:	e5d11000 	ldrb	r1, [r1]
 2001c64:	e5c01000 	strb	r1, [r0]
 2001c68:	e59f178c 	ldr	r1, [pc, #1932]	; 20023fc <execute+0x30>
 2001c6c:	e3a00001 	mov	r0, #1
 2001c70:	e5810000 	str	r0, [r1]
 2001c74:	e8bd01ff 	pop	{r0, r1, r2, r3, r4, r5, r6, r7, r8}
 2001c78:	e12fff1e 	bx	lr

02001c7c <_AD>:
 2001c7c:	e59f07a0 	ldr	r0, [pc, #1952]	; 2002424 <execute+0x58>
 2001c80:	e59f1770 	ldr	r1, [pc, #1904]	; 20023f8 <execute+0x2c>
 2001c84:	e5d11000 	ldrb	r1, [r1]
 2001c88:	e5c01000 	strb	r1, [r0]
 2001c8c:	e59f1768 	ldr	r1, [pc, #1896]	; 20023fc <execute+0x30>
 2001c90:	e3a00001 	mov	r0, #1
 2001c94:	e5810000 	str	r0, [r1]
 2001c98:	e8bd01ff 	pop	{r0, r1, r2, r3, r4, r5, r6, r7, r8}
 2001c9c:	e12fff1e 	bx	lr

02001ca0 <_AE>:
 2001ca0:	e59f0780 	ldr	r0, [pc, #1920]	; 2002428 <execute+0x5c>
 2001ca4:	e59f174c 	ldr	r1, [pc, #1868]	; 20023f8 <execute+0x2c>
 2001ca8:	e5d11000 	ldrb	r1, [r1]
 2001cac:	e5c01000 	strb	r1, [r0]
 2001cb0:	e59f1744 	ldr	r1, [pc, #1860]	; 20023fc <execute+0x30>
 2001cb4:	e3a00001 	mov	r0, #1
 2001cb8:	e5810000 	str	r0, [r1]
 2001cbc:	e8bd01ff 	pop	{r0, r1, r2, r3, r4, r5, r6, r7, r8}
 2001cc0:	e12fff1e 	bx	lr

02001cc4 <_AF>:
 2001cc4:	e59f0760 	ldr	r0, [pc, #1888]	; 200242c <execute+0x60>
 2001cc8:	e59f1728 	ldr	r1, [pc, #1832]	; 20023f8 <execute+0x2c>
 2001ccc:	e5d11000 	ldrb	r1, [r1]
 2001cd0:	e5c01000 	strb	r1, [r0]
 2001cd4:	e59f1720 	ldr	r1, [pc, #1824]	; 20023fc <execute+0x30>
 2001cd8:	e3a00001 	mov	r0, #1
 2001cdc:	e5810000 	str	r0, [r1]
 2001ce0:	e8bd01ff 	pop	{r0, r1, r2, r3, r4, r5, r6, r7, r8}
 2001ce4:	e12fff1e 	bx	lr

02001ce8 <_B0>:
 2001ce8:	e3a05c06 	mov	r5, #1536	; 0x600
 2001cec:	e1d010b0 	ldrh	r1, [r0]
 2001cf0:	e59f0708 	ldr	r0, [pc, #1800]	; 2002400 <execute+0x34>
 2001cf4:	e1d000b0 	ldrh	r0, [r0]
 2001cf8:	e52de004 	push	{lr}		; (str lr, [sp, #-4]!)
 2001cfc:	eb00290c 	bl	200c134 <__ROM_from_arm>
 2001d00:	e49de004 	pop	{lr}		; (ldr lr, [sp], #4)
 2001d04:	e59f36f8 	ldr	r3, [pc, #1784]	; 2002404 <execute+0x38>
 2001d08:	e1d320b0 	ldrh	r2, [r3]
 2001d0c:	e1814005 	orr	r4, r1, r5
 2001d10:	e1844003 	orr	r4, r4, r3
 2001d14:	e59f06e4 	ldr	r0, [pc, #1764]	; 2002400 <execute+0x34>
 2001d18:	e1c040b0 	strh	r4, [r0]
 2001d1c:	e59f16d8 	ldr	r1, [pc, #1752]	; 20023fc <execute+0x30>
 2001d20:	e3a00002 	mov	r0, #2
 2001d24:	e5810000 	str	r0, [r1]
 2001d28:	e8bd01ff 	pop	{r0, r1, r2, r3, r4, r5, r6, r7, r8}
 2001d2c:	e12fff1e 	bx	lr

02001d30 <_C5>:
 2001d30:	e59f06b4 	ldr	r0, [pc, #1716]	; 20023ec <execute+0x20>
 2001d34:	e5d01000 	ldrb	r1, [r0]
 2001d38:	e2411001 	sub	r1, r1, #1
 2001d3c:	e5c01000 	strb	r1, [r0]
 2001d40:	e59f16b4 	ldr	r1, [pc, #1716]	; 20023fc <execute+0x30>
 2001d44:	e3a00001 	mov	r0, #1
 2001d48:	e5810000 	str	r0, [r1]
 2001d4c:	e8bd01ff 	pop	{r0, r1, r2, r3, r4, r5, r6, r7, r8}
 2001d50:	e12fff1e 	bx	lr

02001d54 <_C9>:
 2001d54:	e59f06b8 	ldr	r0, [pc, #1720]	; 2002414 <execute+0x48>
 2001d58:	e5d01000 	ldrb	r1, [r0]
 2001d5c:	e2411001 	sub	r1, r1, #1
 2001d60:	e5c01000 	strb	r1, [r0]
 2001d64:	e59f1690 	ldr	r1, [pc, #1680]	; 20023fc <execute+0x30>
 2001d68:	e3a00001 	mov	r0, #1
 2001d6c:	e5810000 	str	r0, [r1]
 2001d70:	e8bd01ff 	pop	{r0, r1, r2, r3, r4, r5, r6, r7, r8}
 2001d74:	e12fff1e 	bx	lr

02001d78 <_CA>:
 2001d78:	e59f0698 	ldr	r0, [pc, #1688]	; 2002418 <execute+0x4c>
 2001d7c:	e5d01000 	ldrb	r1, [r0]
 2001d80:	e2411001 	sub	r1, r1, #1
 2001d84:	e5c01000 	strb	r1, [r0]
 2001d88:	e59f166c 	ldr	r1, [pc, #1644]	; 20023fc <execute+0x30>
 2001d8c:	e3a00001 	mov	r0, #1
 2001d90:	e5810000 	str	r0, [r1]
 2001d94:	e8bd01ff 	pop	{r0, r1, r2, r3, r4, r5, r6, r7, r8}
 2001d98:	e12fff1e 	bx	lr

02001d9c <_CB>:
 2001d9c:	e59f0678 	ldr	r0, [pc, #1656]	; 200241c <execute+0x50>
 2001da0:	e5d01000 	ldrb	r1, [r0]
 2001da4:	e2411001 	sub	r1, r1, #1
 2001da8:	e5c01000 	strb	r1, [r0]
 2001dac:	e59f1648 	ldr	r1, [pc, #1608]	; 20023fc <execute+0x30>
 2001db0:	e3a00001 	mov	r0, #1
 2001db4:	e5810000 	str	r0, [r1]
 2001db8:	e8bd01ff 	pop	{r0, r1, r2, r3, r4, r5, r6, r7, r8}
 2001dbc:	e12fff1e 	bx	lr

02001dc0 <_CC>:
 2001dc0:	e59f0658 	ldr	r0, [pc, #1624]	; 2002420 <execute+0x54>
 2001dc4:	e5d01000 	ldrb	r1, [r0]
 2001dc8:	e2411001 	sub	r1, r1, #1
 2001dcc:	e5c01000 	strb	r1, [r0]
 2001dd0:	e59f1624 	ldr	r1, [pc, #1572]	; 20023fc <execute+0x30>
 2001dd4:	e3a00001 	mov	r0, #1
 2001dd8:	e5810000 	str	r0, [r1]
 2001ddc:	e8bd01ff 	pop	{r0, r1, r2, r3, r4, r5, r6, r7, r8}
 2001de0:	e12fff1e 	bx	lr

02001de4 <_CD>:
 2001de4:	e59f0638 	ldr	r0, [pc, #1592]	; 2002424 <execute+0x58>
 2001de8:	e5d01000 	ldrb	r1, [r0]
 2001dec:	e2411001 	sub	r1, r1, #1
 2001df0:	e5c01000 	strb	r1, [r0]
 2001df4:	e59f1600 	ldr	r1, [pc, #1536]	; 20023fc <execute+0x30>
 2001df8:	e3a00001 	mov	r0, #1
 2001dfc:	e5810000 	str	r0, [r1]
 2001e00:	e8bd01ff 	pop	{r0, r1, r2, r3, r4, r5, r6, r7, r8}
 2001e04:	e12fff1e 	bx	lr

02001e08 <_CE>:
 2001e08:	e59f0618 	ldr	r0, [pc, #1560]	; 2002428 <execute+0x5c>
 2001e0c:	e5d01000 	ldrb	r1, [r0]
 2001e10:	e2411001 	sub	r1, r1, #1
 2001e14:	e5c01000 	strb	r1, [r0]
 2001e18:	e59f15dc 	ldr	r1, [pc, #1500]	; 20023fc <execute+0x30>
 2001e1c:	e3a00001 	mov	r0, #1
 2001e20:	e5810000 	str	r0, [r1]
 2001e24:	e8bd01ff 	pop	{r0, r1, r2, r3, r4, r5, r6, r7, r8}
 2001e28:	e12fff1e 	bx	lr

02001e2c <_CF>:
 2001e2c:	e59f05f8 	ldr	r0, [pc, #1528]	; 200242c <execute+0x60>
 2001e30:	e5d01000 	ldrb	r1, [r0]
 2001e34:	e2411001 	sub	r1, r1, #1
 2001e38:	e5c01000 	strb	r1, [r0]
 2001e3c:	e59f15b8 	ldr	r1, [pc, #1464]	; 20023fc <execute+0x30>
 2001e40:	e3a00001 	mov	r0, #1
 2001e44:	e5810000 	str	r0, [r1]
 2001e48:	e8bd01ff 	pop	{r0, r1, r2, r3, r4, r5, r6, r7, r8}
 2001e4c:	e12fff1e 	bx	lr

02001e50 <_D0>:
 2001e50:	e3a05c07 	mov	r5, #1792	; 0x700
 2001e54:	e1d010b0 	ldrh	r1, [r0]
 2001e58:	e59f05a0 	ldr	r0, [pc, #1440]	; 2002400 <execute+0x34>
 2001e5c:	e1d000b0 	ldrh	r0, [r0]
 2001e60:	e52de004 	push	{lr}		; (str lr, [sp, #-4]!)
 2001e64:	eb0028b2 	bl	200c134 <__ROM_from_arm>
 2001e68:	e49de004 	pop	{lr}		; (ldr lr, [sp], #4)
 2001e6c:	e59f3590 	ldr	r3, [pc, #1424]	; 2002404 <execute+0x38>
 2001e70:	e1d320b0 	ldrh	r2, [r3]
 2001e74:	e1814005 	orr	r4, r1, r5
 2001e78:	e1844003 	orr	r4, r4, r3
 2001e7c:	e59f057c 	ldr	r0, [pc, #1404]	; 2002400 <execute+0x34>
 2001e80:	e1c040b0 	strh	r4, [r0]
 2001e84:	e59f1570 	ldr	r1, [pc, #1392]	; 20023fc <execute+0x30>
 2001e88:	e3a00002 	mov	r0, #2
 2001e8c:	e5810000 	str	r0, [r1]
 2001e90:	e8bd01ff 	pop	{r0, r1, r2, r3, r4, r5, r6, r7, r8}
 2001e94:	e12fff1e 	bx	lr

02001e98 <_E5>:
 2001e98:	e59f0558 	ldr	r0, [pc, #1368]	; 20023f8 <execute+0x2c>
 2001e9c:	e59f1548 	ldr	r1, [pc, #1352]	; 20023ec <execute+0x20>
 2001ea0:	e5d11000 	ldrb	r1, [r1]
 2001ea4:	e5c01000 	strb	r1, [r0]
 2001ea8:	e59f154c 	ldr	r1, [pc, #1356]	; 20023fc <execute+0x30>
 2001eac:	e3a00001 	mov	r0, #1
 2001eb0:	e5810000 	str	r0, [r1]
 2001eb4:	e8bd01ff 	pop	{r0, r1, r2, r3, r4, r5, r6, r7, r8}
 2001eb8:	e12fff1e 	bx	lr

02001ebc <_F9>:
 2001ebc:	e59f0534 	ldr	r0, [pc, #1332]	; 20023f8 <execute+0x2c>
 2001ec0:	e59f154c 	ldr	r1, [pc, #1356]	; 2002414 <execute+0x48>
 2001ec4:	e5d11000 	ldrb	r1, [r1]
 2001ec8:	e5c01000 	strb	r1, [r0]
 2001ecc:	e59f1528 	ldr	r1, [pc, #1320]	; 20023fc <execute+0x30>
 2001ed0:	e3a00001 	mov	r0, #1
 2001ed4:	e5810000 	str	r0, [r1]
 2001ed8:	e8bd01ff 	pop	{r0, r1, r2, r3, r4, r5, r6, r7, r8}
 2001edc:	e12fff1e 	bx	lr

02001ee0 <_FA>:
 2001ee0:	e59f0510 	ldr	r0, [pc, #1296]	; 20023f8 <execute+0x2c>
 2001ee4:	e59f152c 	ldr	r1, [pc, #1324]	; 2002418 <execute+0x4c>
 2001ee8:	e5d11000 	ldrb	r1, [r1]
 2001eec:	e5c01000 	strb	r1, [r0]
 2001ef0:	e59f1504 	ldr	r1, [pc, #1284]	; 20023fc <execute+0x30>
 2001ef4:	e3a00001 	mov	r0, #1
 2001ef8:	e5810000 	str	r0, [r1]
 2001efc:	e8bd01ff 	pop	{r0, r1, r2, r3, r4, r5, r6, r7, r8}
 2001f00:	e12fff1e 	bx	lr

02001f04 <_FB>:
 2001f04:	e59f04ec 	ldr	r0, [pc, #1260]	; 20023f8 <execute+0x2c>
 2001f08:	e59f150c 	ldr	r1, [pc, #1292]	; 200241c <execute+0x50>
 2001f0c:	e5d11000 	ldrb	r1, [r1]
 2001f10:	e5c01000 	strb	r1, [r0]
 2001f14:	e59f14e0 	ldr	r1, [pc, #1248]	; 20023fc <execute+0x30>
 2001f18:	e3a00001 	mov	r0, #1
 2001f1c:	e5810000 	str	r0, [r1]
 2001f20:	e8bd01ff 	pop	{r0, r1, r2, r3, r4, r5, r6, r7, r8}
 2001f24:	e12fff1e 	bx	lr

02001f28 <_FC>:
 2001f28:	e59f04c8 	ldr	r0, [pc, #1224]	; 20023f8 <execute+0x2c>
 2001f2c:	e59f14ec 	ldr	r1, [pc, #1260]	; 2002420 <execute+0x54>
 2001f30:	e5d11000 	ldrb	r1, [r1]
 2001f34:	e5c01000 	strb	r1, [r0]
 2001f38:	e59f14bc 	ldr	r1, [pc, #1212]	; 20023fc <execute+0x30>
 2001f3c:	e3a00001 	mov	r0, #1
 2001f40:	e5810000 	str	r0, [r1]
 2001f44:	e8bd01ff 	pop	{r0, r1, r2, r3, r4, r5, r6, r7, r8}
 2001f48:	e12fff1e 	bx	lr

02001f4c <_FD>:
 2001f4c:	e59f04a4 	ldr	r0, [pc, #1188]	; 20023f8 <execute+0x2c>
 2001f50:	e59f14cc 	ldr	r1, [pc, #1228]	; 2002424 <execute+0x58>
 2001f54:	e5d11000 	ldrb	r1, [r1]
 2001f58:	e5c01000 	strb	r1, [r0]
 2001f5c:	e59f1498 	ldr	r1, [pc, #1176]	; 20023fc <execute+0x30>
 2001f60:	e3a00001 	mov	r0, #1
 2001f64:	e5810000 	str	r0, [r1]
 2001f68:	e8bd01ff 	pop	{r0, r1, r2, r3, r4, r5, r6, r7, r8}
 2001f6c:	e12fff1e 	bx	lr

02001f70 <_FE>:
 2001f70:	e59f0480 	ldr	r0, [pc, #1152]	; 20023f8 <execute+0x2c>
 2001f74:	e59f14ac 	ldr	r1, [pc, #1196]	; 2002428 <execute+0x5c>
 2001f78:	e5d11000 	ldrb	r1, [r1]
 2001f7c:	e5c01000 	strb	r1, [r0]
 2001f80:	e59f1474 	ldr	r1, [pc, #1140]	; 20023fc <execute+0x30>
 2001f84:	e3a00001 	mov	r0, #1
 2001f88:	e5810000 	str	r0, [r1]
 2001f8c:	e8bd01ff 	pop	{r0, r1, r2, r3, r4, r5, r6, r7, r8}
 2001f90:	e12fff1e 	bx	lr

02001f94 <_FF>:
 2001f94:	e59f045c 	ldr	r0, [pc, #1116]	; 20023f8 <execute+0x2c>
 2001f98:	e59f148c 	ldr	r1, [pc, #1164]	; 200242c <execute+0x60>
 2001f9c:	e5d11000 	ldrb	r1, [r1]
 2001fa0:	e5c01000 	strb	r1, [r0]
 2001fa4:	e59f1450 	ldr	r1, [pc, #1104]	; 20023fc <execute+0x30>
 2001fa8:	e3a00001 	mov	r0, #1
 2001fac:	e5810000 	str	r0, [r1]
 2001fb0:	e8bd01ff 	pop	{r0, r1, r2, r3, r4, r5, r6, r7, r8}
 2001fb4:	e12fff1e 	bx	lr

02001fb8 <_01>:
 2001fb8:	e59f143c 	ldr	r1, [pc, #1084]	; 20023fc <execute+0x30>
 2001fbc:	e3a00001 	mov	r0, #1
 2001fc0:	e5810000 	str	r0, [r1]
 2001fc4:	e8bd01ff 	pop	{r0, r1, r2, r3, r4, r5, r6, r7, r8}
 2001fc8:	e12fff1e 	bx	lr

02001fcc <op_table>:
 2001fcc:	020017b8 	andeq	r1, r0, #184, 14	; 0x2e00000
 2001fd0:	02001fb8 	andeq	r1, r0, #184, 30	; 0x2e0
 2001fd4:	02001fb8 	andeq	r1, r0, #184, 30	; 0x2e0
 2001fd8:	020017cc 	andeq	r1, r0, #204, 14	; 0x3300000
 2001fdc:	020017cc 	andeq	r1, r0, #204, 14	; 0x3300000
 2001fe0:	02001814 	andeq	r1, r0, #20, 16	; 0x140000
 2001fe4:	02001fb8 	andeq	r1, r0, #184, 30	; 0x2e0
 2001fe8:	02001834 	andeq	r1, r0, #52, 16	; 0x340000
 2001fec:	02001858 	andeq	r1, r0, #88, 16	; 0x580000
 2001ff0:	02001858 	andeq	r1, r0, #88, 16	; 0x580000
 2001ff4:	02001858 	andeq	r1, r0, #88, 16	; 0x580000
 2001ff8:	02001fb8 	andeq	r1, r0, #184, 30	; 0x2e0
 2001ffc:	02001858 	andeq	r1, r0, #88, 16	; 0x580000
 2002000:	02001858 	andeq	r1, r0, #88, 16	; 0x580000
 2002004:	02001858 	andeq	r1, r0, #88, 16	; 0x580000
 2002008:	02001858 	andeq	r1, r0, #88, 16	; 0x580000
 200200c:	02001858 	andeq	r1, r0, #88, 16	; 0x580000
 2002010:	02001858 	andeq	r1, r0, #88, 16	; 0x580000
 2002014:	0200188c 	andeq	r1, r0, #140, 16	; 0x8c0000
 2002018:	0200188c 	andeq	r1, r0, #140, 16	; 0x8c0000
 200201c:	0200188c 	andeq	r1, r0, #140, 16	; 0x8c0000
 2002020:	0200188c 	andeq	r1, r0, #140, 16	; 0x8c0000
 2002024:	020018ac 	andeq	r1, r0, #172, 16	; 0xac0000
 2002028:	020018ac 	andeq	r1, r0, #172, 16	; 0xac0000
 200202c:	020018d8 	andeq	r1, r0, #216, 16	; 0xd80000
 2002030:	020018d8 	andeq	r1, r0, #216, 16	; 0xd80000
 2002034:	020018d8 	andeq	r1, r0, #216, 16	; 0xd80000
 2002038:	020018d8 	andeq	r1, r0, #216, 16	; 0xd80000
 200203c:	020018d8 	andeq	r1, r0, #216, 16	; 0xd80000
 2002040:	020018d8 	andeq	r1, r0, #216, 16	; 0xd80000
 2002044:	020018d8 	andeq	r1, r0, #216, 16	; 0xd80000
 2002048:	020018d8 	andeq	r1, r0, #216, 16	; 0xd80000
 200204c:	02001914 	andeq	r1, r0, #20, 18	; 0x50000
 2002050:	02001914 	andeq	r1, r0, #20, 18	; 0x50000
 2002054:	02001fb8 	andeq	r1, r0, #184, 30	; 0x2e0
 2002058:	02001938 	andeq	r1, r0, #56, 18	; 0xe0000
 200205c:	02001938 	andeq	r1, r0, #56, 18	; 0xe0000
 2002060:	02001980 	andeq	r1, r0, #128, 18	; 0x200000
 2002064:	02001980 	andeq	r1, r0, #128, 18	; 0x200000
 2002068:	02001980 	andeq	r1, r0, #128, 18	; 0x200000
 200206c:	020019c0 	andeq	r1, r0, #192, 18	; 0x300000
 2002070:	020019c0 	andeq	r1, r0, #192, 18	; 0x300000
 2002074:	020019c0 	andeq	r1, r0, #192, 18	; 0x300000
 2002078:	020019c0 	andeq	r1, r0, #192, 18	; 0x300000
 200207c:	020019c0 	andeq	r1, r0, #192, 18	; 0x300000
 2002080:	020019c0 	andeq	r1, r0, #192, 18	; 0x300000
 2002084:	020019c0 	andeq	r1, r0, #192, 18	; 0x300000
 2002088:	020019c0 	andeq	r1, r0, #192, 18	; 0x300000
 200208c:	02001a10 	andeq	r1, r0, #16, 20	; 0x10000
 2002090:	02001a10 	andeq	r1, r0, #16, 20	; 0x10000
 2002094:	02001a10 	andeq	r1, r0, #16, 20	; 0x10000
 2002098:	02001fb8 	andeq	r1, r0, #184, 30	; 0x2e0
 200209c:	02001a10 	andeq	r1, r0, #16, 20	; 0x10000
 20020a0:	02001a10 	andeq	r1, r0, #16, 20	; 0x10000
 20020a4:	02001a10 	andeq	r1, r0, #16, 20	; 0x10000
 20020a8:	02001a10 	andeq	r1, r0, #16, 20	; 0x10000
 20020ac:	02001fb8 	andeq	r1, r0, #184, 30	; 0x2e0
 20020b0:	02001a10 	andeq	r1, r0, #16, 20	; 0x10000
 20020b4:	02001a10 	andeq	r1, r0, #16, 20	; 0x10000
 20020b8:	02001fb8 	andeq	r1, r0, #184, 30	; 0x2e0
 20020bc:	02001a10 	andeq	r1, r0, #16, 20	; 0x10000
 20020c0:	02001a10 	andeq	r1, r0, #16, 20	; 0x10000
 20020c4:	02001a10 	andeq	r1, r0, #16, 20	; 0x10000
 20020c8:	02001a10 	andeq	r1, r0, #16, 20	; 0x10000
 20020cc:	02001a10 	andeq	r1, r0, #16, 20	; 0x10000
 20020d0:	02001a10 	andeq	r1, r0, #16, 20	; 0x10000
 20020d4:	02001a10 	andeq	r1, r0, #16, 20	; 0x10000
 20020d8:	02001a10 	andeq	r1, r0, #16, 20	; 0x10000
 20020dc:	02001a10 	andeq	r1, r0, #16, 20	; 0x10000
 20020e0:	02001a58 	andeq	r1, r0, #88, 20	; 0x58000
 20020e4:	02001a58 	andeq	r1, r0, #88, 20	; 0x58000
 20020e8:	02001a58 	andeq	r1, r0, #88, 20	; 0x58000
 20020ec:	02001a90 	andeq	r1, r0, #144, 20	; 0x90000
 20020f0:	02001a90 	andeq	r1, r0, #144, 20	; 0x90000
 20020f4:	02001a90 	andeq	r1, r0, #144, 20	; 0x90000
 20020f8:	02001a90 	andeq	r1, r0, #144, 20	; 0x90000
 20020fc:	02001a90 	andeq	r1, r0, #144, 20	; 0x90000
 2002100:	02001a90 	andeq	r1, r0, #144, 20	; 0x90000
 2002104:	02001a90 	andeq	r1, r0, #144, 20	; 0x90000
 2002108:	02001a90 	andeq	r1, r0, #144, 20	; 0x90000
 200210c:	02001a90 	andeq	r1, r0, #144, 20	; 0x90000
 2002110:	02001a90 	andeq	r1, r0, #144, 20	; 0x90000
 2002114:	02001a90 	andeq	r1, r0, #144, 20	; 0x90000
 2002118:	02001a90 	andeq	r1, r0, #144, 20	; 0x90000
 200211c:	02001a90 	andeq	r1, r0, #144, 20	; 0x90000
 2002120:	02001a90 	andeq	r1, r0, #144, 20	; 0x90000
 2002124:	02001a90 	andeq	r1, r0, #144, 20	; 0x90000
 2002128:	02001a90 	andeq	r1, r0, #144, 20	; 0x90000
 200212c:	02001a90 	andeq	r1, r0, #144, 20	; 0x90000
 2002130:	02001a90 	andeq	r1, r0, #144, 20	; 0x90000
 2002134:	02001a90 	andeq	r1, r0, #144, 20	; 0x90000
 2002138:	02001a90 	andeq	r1, r0, #144, 20	; 0x90000
 200213c:	02001a90 	andeq	r1, r0, #144, 20	; 0x90000
 2002140:	02001a90 	andeq	r1, r0, #144, 20	; 0x90000
 2002144:	02001a90 	andeq	r1, r0, #144, 20	; 0x90000
 2002148:	02001a90 	andeq	r1, r0, #144, 20	; 0x90000
 200214c:	02001a90 	andeq	r1, r0, #144, 20	; 0x90000
 2002150:	02001a90 	andeq	r1, r0, #144, 20	; 0x90000
 2002154:	02001a90 	andeq	r1, r0, #144, 20	; 0x90000
 2002158:	02001fb8 	andeq	r1, r0, #184, 30	; 0x2e0
 200215c:	02001a90 	andeq	r1, r0, #144, 20	; 0x90000
 2002160:	02001ad8 	andeq	r1, r0, #216, 20	; 0xd8000
 2002164:	02001fb8 	andeq	r1, r0, #184, 30	; 0x2e0
 2002168:	02001ad8 	andeq	r1, r0, #216, 20	; 0xd8000
 200216c:	02001ad8 	andeq	r1, r0, #216, 20	; 0xd8000
 2002170:	02001ad8 	andeq	r1, r0, #216, 20	; 0xd8000
 2002174:	02001ad8 	andeq	r1, r0, #216, 20	; 0xd8000
 2002178:	02001ad8 	andeq	r1, r0, #216, 20	; 0xd8000
 200217c:	02001ad8 	andeq	r1, r0, #216, 20	; 0xd8000
 2002180:	02001ad8 	andeq	r1, r0, #216, 20	; 0xd8000
 2002184:	02001ad8 	andeq	r1, r0, #216, 20	; 0xd8000
 2002188:	02001ad8 	andeq	r1, r0, #216, 20	; 0xd8000
 200218c:	02001ad8 	andeq	r1, r0, #216, 20	; 0xd8000
 2002190:	02001ad8 	andeq	r1, r0, #216, 20	; 0xd8000
 2002194:	02001ad8 	andeq	r1, r0, #216, 20	; 0xd8000
 2002198:	02001fb8 	andeq	r1, r0, #184, 30	; 0x2e0
 200219c:	02001ad8 	andeq	r1, r0, #216, 20	; 0xd8000
 20021a0:	02001fb8 	andeq	r1, r0, #184, 30	; 0x2e0
 20021a4:	02001ad8 	andeq	r1, r0, #216, 20	; 0xd8000
 20021a8:	02001ad8 	andeq	r1, r0, #216, 20	; 0xd8000
 20021ac:	02001ad8 	andeq	r1, r0, #216, 20	; 0xd8000
 20021b0:	02001ad8 	andeq	r1, r0, #216, 20	; 0xd8000
 20021b4:	02001ad8 	andeq	r1, r0, #216, 20	; 0xd8000
 20021b8:	02001ad8 	andeq	r1, r0, #216, 20	; 0xd8000
 20021bc:	02001ad8 	andeq	r1, r0, #216, 20	; 0xd8000
 20021c0:	02001ad8 	andeq	r1, r0, #216, 20	; 0xd8000
 20021c4:	02001ad8 	andeq	r1, r0, #216, 20	; 0xd8000
 20021c8:	02001ad8 	andeq	r1, r0, #216, 20	; 0xd8000
 20021cc:	02001ad8 	andeq	r1, r0, #216, 20	; 0xd8000
 20021d0:	02001ad8 	andeq	r1, r0, #216, 20	; 0xd8000
 20021d4:	02001fb8 	andeq	r1, r0, #184, 30	; 0x2e0
 20021d8:	02001ad8 	andeq	r1, r0, #216, 20	; 0xd8000
 20021dc:	02001ad8 	andeq	r1, r0, #216, 20	; 0xd8000
 20021e0:	02001b20 	andeq	r1, r0, #32, 22	; 0x8000
 20021e4:	02001b40 	andeq	r1, r0, #64, 22	; 0x10000
 20021e8:	02001fb8 	andeq	r1, r0, #184, 30	; 0x2e0
 20021ec:	02001fb8 	andeq	r1, r0, #184, 30	; 0x2e0
 20021f0:	02001b40 	andeq	r1, r0, #64, 22	; 0x10000
 20021f4:	02001b40 	andeq	r1, r0, #64, 22	; 0x10000
 20021f8:	02001fb8 	andeq	r1, r0, #184, 30	; 0x2e0
 20021fc:	02001b40 	andeq	r1, r0, #64, 22	; 0x10000
 2002200:	02001b40 	andeq	r1, r0, #64, 22	; 0x10000
 2002204:	02001b40 	andeq	r1, r0, #64, 22	; 0x10000
 2002208:	02001b40 	andeq	r1, r0, #64, 22	; 0x10000
 200220c:	02001b40 	andeq	r1, r0, #64, 22	; 0x10000
 2002210:	02001b40 	andeq	r1, r0, #64, 22	; 0x10000
 2002214:	02001b40 	andeq	r1, r0, #64, 22	; 0x10000
 2002218:	02001b40 	andeq	r1, r0, #64, 22	; 0x10000
 200221c:	02001b40 	andeq	r1, r0, #64, 22	; 0x10000
 2002220:	02001b40 	andeq	r1, r0, #64, 22	; 0x10000
 2002224:	02001b40 	andeq	r1, r0, #64, 22	; 0x10000
 2002228:	02001b40 	andeq	r1, r0, #64, 22	; 0x10000
 200222c:	02001fb8 	andeq	r1, r0, #184, 30	; 0x2e0
 2002230:	02001b60 	andeq	r1, r0, #96, 22	; 0x18000
 2002234:	02001b60 	andeq	r1, r0, #96, 22	; 0x18000
 2002238:	02001fb8 	andeq	r1, r0, #184, 30	; 0x2e0
 200223c:	02001b60 	andeq	r1, r0, #96, 22	; 0x18000
 2002240:	02001b60 	andeq	r1, r0, #96, 22	; 0x18000
 2002244:	02001b60 	andeq	r1, r0, #96, 22	; 0x18000
 2002248:	02001b60 	andeq	r1, r0, #96, 22	; 0x18000
 200224c:	02001b60 	andeq	r1, r0, #96, 22	; 0x18000
 2002250:	02001b60 	andeq	r1, r0, #96, 22	; 0x18000
 2002254:	02001fb8 	andeq	r1, r0, #184, 30	; 0x2e0
 2002258:	02001b60 	andeq	r1, r0, #96, 22	; 0x18000
 200225c:	02001b60 	andeq	r1, r0, #96, 22	; 0x18000
 2002260:	02001ba8 	andeq	r1, r0, #168, 22	; 0x2a000
 2002264:	02001fb8 	andeq	r1, r0, #184, 30	; 0x2e0
 2002268:	02001bc8 	andeq	r1, r0, #200, 22	; 0x32000
 200226c:	02001bc8 	andeq	r1, r0, #200, 22	; 0x32000
 2002270:	02001bec 	andeq	r1, r0, #236, 22	; 0x3b000
 2002274:	02001c10 	andeq	r1, r0, #16, 24	; 0x1000
 2002278:	02001c34 	andeq	r1, r0, #52, 24	; 0x3400
 200227c:	02001c58 	andeq	r1, r0, #88, 24	; 0x5800
 2002280:	02001c7c 	andeq	r1, r0, #124, 24	; 0x7c00
 2002284:	02001ca0 	andeq	r1, r0, #160, 24	; 0xa000
 2002288:	02001cc4 	andeq	r1, r0, #196, 24	; 0xc400
 200228c:	02001ce8 	andeq	r1, r0, #232, 24	; 0xe800
 2002290:	02001ce8 	andeq	r1, r0, #232, 24	; 0xe800
 2002294:	02001ce8 	andeq	r1, r0, #232, 24	; 0xe800
 2002298:	02001ce8 	andeq	r1, r0, #232, 24	; 0xe800
 200229c:	02001ce8 	andeq	r1, r0, #232, 24	; 0xe800
 20022a0:	02001ce8 	andeq	r1, r0, #232, 24	; 0xe800
 20022a4:	02001ce8 	andeq	r1, r0, #232, 24	; 0xe800
 20022a8:	02001fb8 	andeq	r1, r0, #184, 30	; 0x2e0
 20022ac:	02001ce8 	andeq	r1, r0, #232, 24	; 0xe800
 20022b0:	02001ce8 	andeq	r1, r0, #232, 24	; 0xe800
 20022b4:	02001ce8 	andeq	r1, r0, #232, 24	; 0xe800
 20022b8:	02001ce8 	andeq	r1, r0, #232, 24	; 0xe800
 20022bc:	02001ce8 	andeq	r1, r0, #232, 24	; 0xe800
 20022c0:	02001ce8 	andeq	r1, r0, #232, 24	; 0xe800
 20022c4:	02001ce8 	andeq	r1, r0, #232, 24	; 0xe800
 20022c8:	02001ce8 	andeq	r1, r0, #232, 24	; 0xe800
 20022cc:	02001fb8 	andeq	r1, r0, #184, 30	; 0x2e0
 20022d0:	02001fb8 	andeq	r1, r0, #184, 30	; 0x2e0
 20022d4:	02001fb8 	andeq	r1, r0, #184, 30	; 0x2e0
 20022d8:	02001fb8 	andeq	r1, r0, #184, 30	; 0x2e0
 20022dc:	02001ce8 	andeq	r1, r0, #232, 24	; 0xe800
 20022e0:	02001d30 	andeq	r1, r0, #48, 26	; 0xc00
 20022e4:	02001d30 	andeq	r1, r0, #48, 26	; 0xc00
 20022e8:	02001d30 	andeq	r1, r0, #48, 26	; 0xc00
 20022ec:	02001d30 	andeq	r1, r0, #48, 26	; 0xc00
 20022f0:	02001d54 	andeq	r1, r0, #84, 26	; 0x1500
 20022f4:	02001d78 	andeq	r1, r0, #120, 26	; 0x1e00
 20022f8:	02001d9c 	andeq	r1, r0, #156, 26	; 0x2700
 20022fc:	02001dc0 	andeq	r1, r0, #192, 26	; 0x3000
 2002300:	02001de4 	andeq	r1, r0, #228, 26	; 0x3900
 2002304:	02001e08 	andeq	r1, r0, #8, 28	; 0x80
 2002308:	02001e2c 	andeq	r1, r0, #44, 28	; 0x2c0
 200230c:	02001e50 	andeq	r1, r0, #80, 28	; 0x500
 2002310:	02001e50 	andeq	r1, r0, #80, 28	; 0x500
 2002314:	02001e50 	andeq	r1, r0, #80, 28	; 0x500
 2002318:	02001e50 	andeq	r1, r0, #80, 28	; 0x500
 200231c:	02001e50 	andeq	r1, r0, #80, 28	; 0x500
 2002320:	02001e50 	andeq	r1, r0, #80, 28	; 0x500
 2002324:	02001fb8 	andeq	r1, r0, #184, 30	; 0x2e0
 2002328:	02001e50 	andeq	r1, r0, #80, 28	; 0x500
 200232c:	02001e50 	andeq	r1, r0, #80, 28	; 0x500
 2002330:	02001e50 	andeq	r1, r0, #80, 28	; 0x500
 2002334:	02001e50 	andeq	r1, r0, #80, 28	; 0x500
 2002338:	02001e50 	andeq	r1, r0, #80, 28	; 0x500
 200233c:	02001e50 	andeq	r1, r0, #80, 28	; 0x500
 2002340:	02001e50 	andeq	r1, r0, #80, 28	; 0x500
 2002344:	02001e50 	andeq	r1, r0, #80, 28	; 0x500
 2002348:	02001e50 	andeq	r1, r0, #80, 28	; 0x500
 200234c:	02001fb8 	andeq	r1, r0, #184, 30	; 0x2e0
 2002350:	02001fb8 	andeq	r1, r0, #184, 30	; 0x2e0
 2002354:	02001fb8 	andeq	r1, r0, #184, 30	; 0x2e0
 2002358:	02001e50 	andeq	r1, r0, #80, 28	; 0x500
 200235c:	02001e50 	andeq	r1, r0, #80, 28	; 0x500
 2002360:	02001e98 	andeq	r1, r0, #152, 28	; 0x980
 2002364:	02001e98 	andeq	r1, r0, #152, 28	; 0x980
 2002368:	02001e98 	andeq	r1, r0, #152, 28	; 0x980
 200236c:	02001e98 	andeq	r1, r0, #152, 28	; 0x980
 2002370:	02001e98 	andeq	r1, r0, #152, 28	; 0x980
 2002374:	02001e98 	andeq	r1, r0, #152, 28	; 0x980
 2002378:	02001e98 	andeq	r1, r0, #152, 28	; 0x980
 200237c:	02001e98 	andeq	r1, r0, #152, 28	; 0x980
 2002380:	02001e98 	andeq	r1, r0, #152, 28	; 0x980
 2002384:	02001e98 	andeq	r1, r0, #152, 28	; 0x980
 2002388:	02001e98 	andeq	r1, r0, #152, 28	; 0x980
 200238c:	02001e98 	andeq	r1, r0, #152, 28	; 0x980
 2002390:	02001e98 	andeq	r1, r0, #152, 28	; 0x980
 2002394:	02001e98 	andeq	r1, r0, #152, 28	; 0x980
 2002398:	02001fb8 	andeq	r1, r0, #184, 30	; 0x2e0
 200239c:	02001e98 	andeq	r1, r0, #152, 28	; 0x980
 20023a0:	02001e98 	andeq	r1, r0, #152, 28	; 0x980
 20023a4:	02001e98 	andeq	r1, r0, #152, 28	; 0x980
 20023a8:	02001e98 	andeq	r1, r0, #152, 28	; 0x980
 20023ac:	02001e98 	andeq	r1, r0, #152, 28	; 0x980
 20023b0:	02001ebc 	andeq	r1, r0, #188, 28	; 0xbc0
 20023b4:	02001ee0 	andeq	r1, r0, #224, 28	; 0xe00
 20023b8:	02001f04 	andeq	r1, r0, #4, 30
 20023bc:	02001f28 	andeq	r1, r0, #40, 30	; 0xa0
 20023c0:	02001f4c 	andeq	r1, r0, #76, 30	; 0x130
 20023c4:	02001f70 	andeq	r1, r0, #112, 30	; 0x1c0
 20023c8:	02001f94 	andeq	r1, r0, #148, 30	; 0x250

020023cc <execute>:
 20023cc:	e92d01ff 	push	{r0, r1, r2, r3, r4, r5, r6, r7, r8}
 20023d0:	e5d00000 	ldrb	r0, [r0]
 20023d4:	e59f1054 	ldr	r1, [pc, #84]	; 2002430 <execute+0x64>
 20023d8:	e3a03004 	mov	r3, #4
 20023dc:	e0040390 	mul	r4, r0, r3
 20023e0:	e7912004 	ldr	r2, [r1, r4]
 20023e4:	e12fff12 	bx	r2
 20023e8:	e12fff1e 	bx	lr
 20023ec:	0300107c 	movweq	r1, #124	; 0x7c
 20023f0:	03001077 	movweq	r1, #119	; 0x77
 20023f4:	03001079 	movweq	r1, #121	; 0x79
 20023f8:	03001076 	movweq	r1, #118	; 0x76
 20023fc:	03001070 	movweq	r1, #112	; 0x70
 2002400:	030010d2 	movweq	r1, #210	; 0xd2
 2002404:	030010e4 	movweq	r1, #228	; 0xe4
 2002408:	030010d1 	movweq	r1, #209	; 0xd1
 200240c:	03001088 	movweq	r1, #136	; 0x88
 2002410:	0300108b 	movweq	r1, #139	; 0x8b
 2002414:	0300107d 	movweq	r1, #125	; 0x7d
 2002418:	0300107e 	movweq	r1, #126	; 0x7e
 200241c:	0300107f 	movweq	r1, #127	; 0x7f
 2002420:	03001080 	movweq	r1, #128	; 0x80
 2002424:	03001081 	movweq	r1, #129	; 0x81
 2002428:	03001082 	movweq	r1, #130	; 0x82
 200242c:	03001083 	movweq	r1, #131	; 0x83
 2002430:	02001fcc 	andeq	r1, r0, #204, 30	; 0x330

02002434 <render>:
 2002434:	221f      	movs	r2, #31
 2002436:	4b01      	ldr	r3, [pc, #4]	; (200243c <render+0x8>)
 2002438:	701a      	strb	r2, [r3, #0]
 200243a:	4770      	bx	lr
 200243c:	020109fc 	andeq	r0, r1, #252, 18	; 0x3f0000

02002440 <hrt_Diff8bitUnFilterWram>:
 2002440:	000a      	movs	r2, r1
 2002442:	4904      	ldr	r1, [pc, #16]	; (2002454 <hrt_Diff8bitUnFilterWram+0x14>)
 2002444:	7809      	ldrb	r1, [r1, #0]
 2002446:	0003      	movs	r3, r0
 2002448:	2901      	cmp	r1, #1
 200244a:	d102      	bne.n	2002452 <hrt_Diff8bitUnFilterWram+0x12>
 200244c:	1c18      	adds	r0, r3, #0
 200244e:	1c11      	adds	r1, r2, #0
 2002450:	df16      	svc	22
 2002452:	4770      	bx	lr
 2002454:	0300120c 	movweq	r1, #524	; 0x20c

02002458 <hrt_Diff8bitUnFilterVram>:
 2002458:	000a      	movs	r2, r1
 200245a:	4904      	ldr	r1, [pc, #16]	; (200246c <hrt_Diff8bitUnFilterVram+0x14>)
 200245c:	7809      	ldrb	r1, [r1, #0]
 200245e:	0003      	movs	r3, r0
 2002460:	2901      	cmp	r1, #1
 2002462:	d102      	bne.n	200246a <hrt_Diff8bitUnFilterVram+0x12>
 2002464:	1c18      	adds	r0, r3, #0
 2002466:	1c11      	adds	r1, r2, #0
 2002468:	df17      	svc	23
 200246a:	4770      	bx	lr
 200246c:	0300120c 	movweq	r1, #524	; 0x20c

02002470 <hrt_Diff16bitUnFilter>:
 2002470:	000a      	movs	r2, r1
 2002472:	4904      	ldr	r1, [pc, #16]	; (2002484 <hrt_Diff16bitUnFilter+0x14>)
 2002474:	7809      	ldrb	r1, [r1, #0]
 2002476:	0003      	movs	r3, r0
 2002478:	2901      	cmp	r1, #1
 200247a:	d102      	bne.n	2002482 <hrt_Diff16bitUnFilter+0x12>
 200247c:	1c18      	adds	r0, r3, #0
 200247e:	1c11      	adds	r1, r2, #0
 2002480:	df18      	svc	24
 2002482:	4770      	bx	lr
 2002484:	0300120c 	movweq	r1, #524	; 0x20c

02002488 <hrt_HuffUnComp>:
 2002488:	000a      	movs	r2, r1
 200248a:	4904      	ldr	r1, [pc, #16]	; (200249c <hrt_HuffUnComp+0x14>)
 200248c:	7809      	ldrb	r1, [r1, #0]
 200248e:	0003      	movs	r3, r0
 2002490:	2901      	cmp	r1, #1
 2002492:	d102      	bne.n	200249a <hrt_HuffUnComp+0x12>
 2002494:	1c18      	adds	r0, r3, #0
 2002496:	1c11      	adds	r1, r2, #0
 2002498:	df13      	svc	19
 200249a:	4770      	bx	lr
 200249c:	0300120c 	movweq	r1, #524	; 0x20c

020024a0 <hrt_LZ77UnCompWRAM>:
 20024a0:	000a      	movs	r2, r1
 20024a2:	4904      	ldr	r1, [pc, #16]	; (20024b4 <hrt_LZ77UnCompWRAM+0x14>)
 20024a4:	7809      	ldrb	r1, [r1, #0]
 20024a6:	0003      	movs	r3, r0
 20024a8:	2901      	cmp	r1, #1
 20024aa:	d102      	bne.n	20024b2 <hrt_LZ77UnCompWRAM+0x12>
 20024ac:	1c18      	adds	r0, r3, #0
 20024ae:	1c11      	adds	r1, r2, #0
 20024b0:	df11      	svc	17
 20024b2:	4770      	bx	lr
 20024b4:	0300120c 	movweq	r1, #524	; 0x20c

020024b8 <hrt_LZ77UnCompVRAM>:
 20024b8:	4b02      	ldr	r3, [pc, #8]	; (20024c4 <hrt_LZ77UnCompVRAM+0xc>)
 20024ba:	781b      	ldrb	r3, [r3, #0]
 20024bc:	2b01      	cmp	r3, #1
 20024be:	d100      	bne.n	20024c2 <hrt_LZ77UnCompVRAM+0xa>
 20024c0:	df12      	svc	18
 20024c2:	4770      	bx	lr
 20024c4:	0300120c 	movweq	r1, #524	; 0x20c

020024c8 <hrt_RLUnCompVram>:
 20024c8:	000a      	movs	r2, r1
 20024ca:	4904      	ldr	r1, [pc, #16]	; (20024dc <hrt_RLUnCompVram+0x14>)
 20024cc:	7809      	ldrb	r1, [r1, #0]
 20024ce:	0003      	movs	r3, r0
 20024d0:	2901      	cmp	r1, #1
 20024d2:	d102      	bne.n	20024da <hrt_RLUnCompVram+0x12>
 20024d4:	1c18      	adds	r0, r3, #0
 20024d6:	1c11      	adds	r1, r2, #0
 20024d8:	df15      	svc	21
 20024da:	4770      	bx	lr
 20024dc:	0300120c 	movweq	r1, #524	; 0x20c

020024e0 <hrt_AGBPrint>:
 20024e0:	4a04      	ldr	r2, [pc, #16]	; (20024f4 <hrt_AGBPrint+0x14>)
 20024e2:	7812      	ldrb	r2, [r2, #0]
 20024e4:	0003      	movs	r3, r0
 20024e6:	2a01      	cmp	r2, #1
 20024e8:	d103      	bne.n	20024f2 <hrt_AGBPrint+0x12>
 20024ea:	1c1a      	adds	r2, r3, #0
 20024ec:	4848      	ldr	r0, [pc, #288]	; (2002610 <hrt_GetBiosChecksum+0x14>)
 20024ee:	2100      	movs	r1, #0
 20024f0:	4000      	ands	r0, r0
 20024f2:	4770      	bx	lr
 20024f4:	0300120c 	movweq	r1, #524	; 0x20c

020024f8 <hrt_ColdReset>:
 20024f8:	4b02      	ldr	r3, [pc, #8]	; (2002504 <hrt_ColdReset+0xc>)
 20024fa:	781b      	ldrb	r3, [r3, #0]
 20024fc:	2b01      	cmp	r3, #1
 20024fe:	d100      	bne.n	2002502 <hrt_ColdReset+0xa>
 2002500:	df26      	svc	38	; 0x26
 2002502:	4770      	bx	lr
 2002504:	0300120c 	movweq	r1, #524	; 0x20c

02002508 <hrt_VblankIntrWait>:
 2002508:	4b02      	ldr	r3, [pc, #8]	; (2002514 <hrt_VblankIntrWait+0xc>)
 200250a:	781b      	ldrb	r3, [r3, #0]
 200250c:	2b01      	cmp	r3, #1
 200250e:	d100      	bne.n	2002512 <hrt_VblankIntrWait+0xa>
 2002510:	df05      	svc	5
 2002512:	4770      	bx	lr
 2002514:	0300120c 	movweq	r1, #524	; 0x20c

02002518 <hrt_CpuSet>:
 2002518:	4b02      	ldr	r3, [pc, #8]	; (2002524 <hrt_CpuSet+0xc>)
 200251a:	781b      	ldrb	r3, [r3, #0]
 200251c:	2b01      	cmp	r3, #1
 200251e:	d100      	bne.n	2002522 <hrt_CpuSet+0xa>
 2002520:	df0b      	svc	11
 2002522:	4770      	bx	lr
 2002524:	0300120c 	movweq	r1, #524	; 0x20c

02002528 <hrt_CpuFastSet>:
 2002528:	4b02      	ldr	r3, [pc, #8]	; (2002534 <hrt_CpuFastSet+0xc>)
 200252a:	781b      	ldrb	r3, [r3, #0]
 200252c:	2b01      	cmp	r3, #1
 200252e:	d100      	bne.n	2002532 <hrt_CpuFastSet+0xa>
 2002530:	df0c      	svc	12
 2002532:	4770      	bx	lr
 2002534:	0300120c 	movweq	r1, #524	; 0x20c

02002538 <hrt_IntrWait>:
 2002538:	4b02      	ldr	r3, [pc, #8]	; (2002544 <hrt_IntrWait+0xc>)
 200253a:	781b      	ldrb	r3, [r3, #0]
 200253c:	2b01      	cmp	r3, #1
 200253e:	d100      	bne.n	2002542 <hrt_IntrWait+0xa>
 2002540:	df04      	svc	4
 2002542:	4770      	bx	lr
 2002544:	0300120c 	movweq	r1, #524	; 0x20c

02002548 <hrt_Halt>:
 2002548:	4b02      	ldr	r3, [pc, #8]	; (2002554 <hrt_Halt+0xc>)
 200254a:	781b      	ldrb	r3, [r3, #0]
 200254c:	2b01      	cmp	r3, #1
 200254e:	d100      	bne.n	2002552 <hrt_Halt+0xa>
 2002550:	df02      	svc	2
 2002552:	4770      	bx	lr
 2002554:	0300120c 	movweq	r1, #524	; 0x20c

02002558 <hrt_Stop>:
 2002558:	4b02      	ldr	r3, [pc, #8]	; (2002564 <hrt_Stop+0xc>)
 200255a:	781b      	ldrb	r3, [r3, #0]
 200255c:	2b01      	cmp	r3, #1
 200255e:	d100      	bne.n	2002562 <hrt_Stop+0xa>
 2002560:	df03      	svc	3
 2002562:	4770      	bx	lr
 2002564:	0300120c 	movweq	r1, #524	; 0x20c

02002568 <hrt_ConfigRegisterRamReset>:
 2002568:	b5f7      	push	{r0, r1, r2, r4, r5, r6, r7, lr}
 200256a:	ad0b      	add	r5, sp, #44	; 0x2c
 200256c:	782f      	ldrb	r7, [r5, #0]
 200256e:	4d12      	ldr	r5, [pc, #72]	; (20025b8 <hrt_ConfigRegisterRamReset+0x50>)
 2002570:	782d      	ldrb	r5, [r5, #0]
 2002572:	46ac      	mov	ip, r5
 2002574:	9300      	str	r3, [sp, #0]
 2002576:	4663      	mov	r3, ip
 2002578:	ac08      	add	r4, sp, #32
 200257a:	7824      	ldrb	r4, [r4, #0]
 200257c:	9401      	str	r4, [sp, #4]
 200257e:	ac09      	add	r4, sp, #36	; 0x24
 2002580:	7826      	ldrb	r6, [r4, #0]
 2002582:	ac0a      	add	r4, sp, #40	; 0x28
 2002584:	7824      	ldrb	r4, [r4, #0]
 2002586:	2500      	movs	r5, #0
 2002588:	2b01      	cmp	r3, #1
 200258a:	d111      	bne.n	20025b0 <hrt_ConfigRegisterRamReset+0x48>
 200258c:	9b01      	ldr	r3, [sp, #4]
 200258e:	01a4      	lsls	r4, r4, #6
 2002590:	01ff      	lsls	r7, r7, #7
 2002592:	4327      	orrs	r7, r4
 2002594:	0176      	lsls	r6, r6, #5
 2002596:	011c      	lsls	r4, r3, #4
 2002598:	9b00      	ldr	r3, [sp, #0]
 200259a:	433e      	orrs	r6, r7
 200259c:	4326      	orrs	r6, r4
 200259e:	00db      	lsls	r3, r3, #3
 20025a0:	431e      	orrs	r6, r3
 20025a2:	4306      	orrs	r6, r0
 20025a4:	0092      	lsls	r2, r2, #2
 20025a6:	4316      	orrs	r6, r2
 20025a8:	0049      	lsls	r1, r1, #1
 20025aa:	430e      	orrs	r6, r1
 20025ac:	0635      	lsls	r5, r6, #24
 20025ae:	0e2d      	lsrs	r5, r5, #24
 20025b0:	0028      	movs	r0, r5
 20025b2:	bcfe      	pop	{r1, r2, r3, r4, r5, r6, r7}
 20025b4:	bc02      	pop	{r1}
 20025b6:	4708      	bx	r1
 20025b8:	0300120c 	movweq	r1, #524	; 0x20c

020025bc <hrt_SoftReset>:
 20025bc:	4b02      	ldr	r3, [pc, #8]	; (20025c8 <hrt_SoftReset+0xc>)
 20025be:	781b      	ldrb	r3, [r3, #0]
 20025c0:	2b01      	cmp	r3, #1
 20025c2:	d100      	bne.n	20025c6 <hrt_SoftReset+0xa>
 20025c4:	df00      	svc	0
 20025c6:	4770      	bx	lr
 20025c8:	0300120c 	movweq	r1, #524	; 0x20c

020025cc <hrt_BitUnPack>:
 20025cc:	4b02      	ldr	r3, [pc, #8]	; (20025d8 <hrt_BitUnPack+0xc>)
 20025ce:	781b      	ldrb	r3, [r3, #0]
 20025d0:	2b01      	cmp	r3, #1
 20025d2:	d100      	bne.n	20025d6 <hrt_BitUnPack+0xa>
 20025d4:	df10      	svc	16
 20025d6:	4770      	bx	lr
 20025d8:	0300120c 	movweq	r1, #524	; 0x20c

020025dc <hrt_ObjAffineSet>:
 20025dc:	4b02      	ldr	r3, [pc, #8]	; (20025e8 <hrt_ObjAffineSet+0xc>)
 20025de:	781b      	ldrb	r3, [r3, #0]
 20025e0:	2b01      	cmp	r3, #1
 20025e2:	d100      	bne.n	20025e6 <hrt_ObjAffineSet+0xa>
 20025e4:	df0f      	svc	15
 20025e6:	4770      	bx	lr
 20025e8:	0300120c 	movweq	r1, #524	; 0x20c

020025ec <hrt_BgAffineSet>:
 20025ec:	4b02      	ldr	r3, [pc, #8]	; (20025f8 <hrt_BgAffineSet+0xc>)
 20025ee:	781b      	ldrb	r3, [r3, #0]
 20025f0:	2b01      	cmp	r3, #1
 20025f2:	d100      	bne.n	20025f6 <hrt_BgAffineSet+0xa>
 20025f4:	df0e      	svc	14
 20025f6:	4770      	bx	lr
 20025f8:	0300120c 	movweq	r1, #524	; 0x20c

020025fc <hrt_GetBiosChecksum>:
 20025fc:	4b03      	ldr	r3, [pc, #12]	; (200260c <hrt_GetBiosChecksum+0x10>)
 20025fe:	781b      	ldrb	r3, [r3, #0]
 2002600:	2000      	movs	r0, #0
 2002602:	2b01      	cmp	r3, #1
 2002604:	d101      	bne.n	200260a <hrt_GetBiosChecksum+0xe>
 2002606:	df0d      	svc	13
 2002608:	1c00      	adds	r0, r0, #0
 200260a:	4770      	bx	lr
 200260c:	0300120c 	movweq	r1, #524	; 0x20c
 2002610:	c0ded00d 	sbcsgt	sp, lr, sp

02002614 <hrt_SetPaletteOfTiledText>:
 2002614:	4b09      	ldr	r3, [pc, #36]	; (200263c <hrt_SetPaletteOfTiledText+0x28>)
 2002616:	781a      	ldrb	r2, [r3, #0]
 2002618:	2a01      	cmp	r2, #1
 200261a:	d10e      	bne.n	200263a <hrt_SetPaletteOfTiledText+0x26>
 200261c:	2280      	movs	r2, #128	; 0x80
 200261e:	76d8      	strb	r0, [r3, #27]
 2002620:	4b07      	ldr	r3, [pc, #28]	; (2002640 <hrt_SetPaletteOfTiledText+0x2c>)
 2002622:	0300      	lsls	r0, r0, #12
 2002624:	681b      	ldr	r3, [r3, #0]
 2002626:	0400      	lsls	r0, r0, #16
 2002628:	0112      	lsls	r2, r2, #4
 200262a:	1400      	asrs	r0, r0, #16
 200262c:	1899      	adds	r1, r3, r2
 200262e:	881a      	ldrh	r2, [r3, #0]
 2002630:	4302      	orrs	r2, r0
 2002632:	801a      	strh	r2, [r3, #0]
 2002634:	3302      	adds	r3, #2
 2002636:	4299      	cmp	r1, r3
 2002638:	d1f9      	bne.n	200262e <hrt_SetPaletteOfTiledText+0x1a>
 200263a:	4770      	bx	lr
 200263c:	0300120c 	movweq	r1, #524	; 0x20c
 2002640:	03001428 	movweq	r1, #1064	; 0x428

02002644 <hrt_SetBitmapTextColors>:
 2002644:	4b03      	ldr	r3, [pc, #12]	; (2002654 <hrt_SetBitmapTextColors+0x10>)
 2002646:	781b      	ldrb	r3, [r3, #0]
 2002648:	2b01      	cmp	r3, #1
 200264a:	d102      	bne.n	2002652 <hrt_SetBitmapTextColors+0xe>
 200264c:	4b02      	ldr	r3, [pc, #8]	; (2002658 <hrt_SetBitmapTextColors+0x14>)
 200264e:	8058      	strh	r0, [r3, #2]
 2002650:	8099      	strh	r1, [r3, #4]
 2002652:	4770      	bx	lr
 2002654:	0300120c 	movweq	r1, #524	; 0x20c
 2002658:	0300141c 	movweq	r1, #1052	; 0x41c

0200265c <hrt_DrawChar>:
 200265c:	b5f0      	push	{r4, r5, r6, r7, lr}
 200265e:	b085      	sub	sp, #20
 2002660:	9103      	str	r1, [sp, #12]
 2002662:	4913      	ldr	r1, [pc, #76]	; (20026b0 <hrt_DrawChar+0x54>)
 2002664:	7809      	ldrb	r1, [r1, #0]
 2002666:	9002      	str	r0, [sp, #8]
 2002668:	2901      	cmp	r1, #1
 200266a:	d11d      	bne.n	20026a8 <hrt_DrawChar+0x4c>
 200266c:	3b20      	subs	r3, #32
 200266e:	019c      	lsls	r4, r3, #6
 2002670:	4b10      	ldr	r3, [pc, #64]	; (20026b4 <hrt_DrawChar+0x58>)
 2002672:	18e4      	adds	r4, r4, r3
 2002674:	0013      	movs	r3, r2
 2002676:	0015      	movs	r5, r2
 2002678:	3308      	adds	r3, #8
 200267a:	9301      	str	r3, [sp, #4]
 200267c:	2600      	movs	r6, #0
 200267e:	5da3      	ldrb	r3, [r4, r6]
 2002680:	2b00      	cmp	r3, #0
 2002682:	d009      	beq.n	2002698 <hrt_DrawChar+0x3c>
 2002684:	4a0c      	ldr	r2, [pc, #48]	; (20026b8 <hrt_DrawChar+0x5c>)
 2002686:	005b      	lsls	r3, r3, #1
 2002688:	5a9b      	ldrh	r3, [r3, r2]
 200268a:	9a03      	ldr	r2, [sp, #12]
 200268c:	9802      	ldr	r0, [sp, #8]
 200268e:	1991      	adds	r1, r2, r6
 2002690:	4f0a      	ldr	r7, [pc, #40]	; (20026bc <hrt_DrawChar+0x60>)
 2002692:	002a      	movs	r2, r5
 2002694:	f000 f8c0 	bl	2002818 <hrt_ClearTiledText+0x2c>
 2002698:	3601      	adds	r6, #1
 200269a:	2e08      	cmp	r6, #8
 200269c:	d1ef      	bne.n	200267e <hrt_DrawChar+0x22>
 200269e:	9b01      	ldr	r3, [sp, #4]
 20026a0:	3501      	adds	r5, #1
 20026a2:	3408      	adds	r4, #8
 20026a4:	429d      	cmp	r5, r3
 20026a6:	d1e9      	bne.n	200267c <hrt_DrawChar+0x20>
 20026a8:	b005      	add	sp, #20
 20026aa:	bcf0      	pop	{r4, r5, r6, r7}
 20026ac:	bc01      	pop	{r0}
 20026ae:	4700      	bx	r0
 20026b0:	0300120c 	movweq	r1, #524	; 0x20c
 20026b4:	0200d25c 	andeq	sp, r0, #92, 4	; 0xc0000005
 20026b8:	0300141c 	movweq	r1, #1052	; 0x41c
 20026bc:	0200298d 	andeq	r2, r0, #2310144	; 0x234000

020026c0 <hrt_PrintOnBitmap>:
 20026c0:	b40c      	push	{r2, r3}
 20026c2:	4b0f      	ldr	r3, [pc, #60]	; (2002700 <hrt_PrintOnBitmap+0x40>)
 20026c4:	781b      	ldrb	r3, [r3, #0]
 20026c6:	b573      	push	{r0, r1, r4, r5, r6, lr}
 20026c8:	0005      	movs	r5, r0
 20026ca:	000e      	movs	r6, r1
 20026cc:	2b01      	cmp	r3, #1
 20026ce:	d10a      	bne.n	20026e6 <hrt_PrintOnBitmap+0x26>
 20026d0:	4c0c      	ldr	r4, [pc, #48]	; (2002704 <hrt_PrintOnBitmap+0x44>)
 20026d2:	aa07      	add	r2, sp, #28
 20026d4:	9201      	str	r2, [sp, #4]
 20026d6:	9906      	ldr	r1, [sp, #24]
 20026d8:	0020      	movs	r0, r4
 20026da:	4b0b      	ldr	r3, [pc, #44]	; (2002708 <hrt_PrintOnBitmap+0x48>)
 20026dc:	f000 f89a 	bl	2002814 <hrt_ClearTiledText+0x28>
 20026e0:	7823      	ldrb	r3, [r4, #0]
 20026e2:	2b00      	cmp	r3, #0
 20026e4:	d103      	bne.n	20026ee <hrt_PrintOnBitmap+0x2e>
 20026e6:	bc73      	pop	{r0, r1, r4, r5, r6}
 20026e8:	bc08      	pop	{r3}
 20026ea:	b002      	add	sp, #8
 20026ec:	4718      	bx	r3
 20026ee:	0029      	movs	r1, r5
 20026f0:	0032      	movs	r2, r6
 20026f2:	2003      	movs	r0, #3
 20026f4:	3401      	adds	r4, #1
 20026f6:	f7ff ffb1 	bl	200265c <hrt_DrawChar>
 20026fa:	3508      	adds	r5, #8
 20026fc:	e7f0      	b.n	20026e0 <hrt_PrintOnBitmap+0x20>
 20026fe:	46c0      	nop			; (mov r8, r8)
 2002700:	0300120c 	movweq	r1, #524	; 0x20c
 2002704:	030011ea 	movweq	r1, #490	; 0x1ea
 2002708:	02006881 	andeq	r6, r0, #8454144	; 0x810000

0200270c <hrt_InitTiledText>:
 200270c:	4b16      	ldr	r3, [pc, #88]	; (2002768 <hrt_InitTiledText+0x5c>)
 200270e:	b5f7      	push	{r0, r1, r2, r4, r5, r6, r7, lr}
 2002710:	781f      	ldrb	r7, [r3, #0]
 2002712:	0004      	movs	r4, r0
 2002714:	2f01      	cmp	r7, #1
 2002716:	d124      	bne.n	2002762 <hrt_InitTiledText+0x56>
 2002718:	2500      	movs	r5, #0
 200271a:	4b14      	ldr	r3, [pc, #80]	; (200276c <hrt_InitTiledText+0x60>)
 200271c:	466a      	mov	r2, sp
 200271e:	9300      	str	r3, [sp, #0]
 2002720:	4913      	ldr	r1, [pc, #76]	; (2002770 <hrt_InitTiledText+0x64>)
 2002722:	4b14      	ldr	r3, [pc, #80]	; (2002774 <hrt_InitTiledText+0x68>)
 2002724:	4814      	ldr	r0, [pc, #80]	; (2002778 <hrt_InitTiledText+0x6c>)
 2002726:	9501      	str	r5, [sp, #4]
 2002728:	f000 f874 	bl	2002814 <hrt_ClearTiledText+0x28>
 200272c:	4e13      	ldr	r6, [pc, #76]	; (200277c <hrt_InitTiledText+0x70>)
 200272e:	0029      	movs	r1, r5
 2002730:	0028      	movs	r0, r5
 2002732:	f000 f870 	bl	2002816 <hrt_ClearTiledText+0x2a>
 2002736:	4912      	ldr	r1, [pc, #72]	; (2002780 <hrt_InitTiledText+0x74>)
 2002738:	0038      	movs	r0, r7
 200273a:	f000 f86c 	bl	2002816 <hrt_ClearTiledText+0x2a>
 200273e:	4911      	ldr	r1, [pc, #68]	; (2002784 <hrt_InitTiledText+0x78>)
 2002740:	2002      	movs	r0, #2
 2002742:	f000 f868 	bl	2002816 <hrt_ClearTiledText+0x2a>
 2002746:	2280      	movs	r2, #128	; 0x80
 2002748:	2140      	movs	r1, #64	; 0x40
 200274a:	4b0f      	ldr	r3, [pc, #60]	; (2002788 <hrt_InitTiledText+0x7c>)
 200274c:	18e4      	adds	r4, r4, r3
 200274e:	4b0f      	ldr	r3, [pc, #60]	; (200278c <hrt_InitTiledText+0x80>)
 2002750:	0064      	lsls	r4, r4, #1
 2002752:	681b      	ldr	r3, [r3, #0]
 2002754:	0112      	lsls	r2, r2, #4
 2002756:	8025      	strh	r5, [r4, #0]
 2002758:	189a      	adds	r2, r3, r2
 200275a:	8019      	strh	r1, [r3, #0]
 200275c:	3302      	adds	r3, #2
 200275e:	4293      	cmp	r3, r2
 2002760:	d1fb      	bne.n	200275a <hrt_InitTiledText+0x4e>
 2002762:	bcf7      	pop	{r0, r1, r2, r4, r5, r6, r7}
 2002764:	bc01      	pop	{r0}
 2002766:	4700      	bx	r0
 2002768:	0300120c 	movweq	r1, #524	; 0x20c
 200276c:	040817c0 	streq	r1, [r8], #-1984	; 0xfffff840
 2002770:	06000800 	streq	r0, [r0], -r0, lsl #16
 2002774:	020025cd 	andeq	r2, r0, #859832320	; 0x33400000
 2002778:	0200d25c 	andeq	sp, r0, #92, 4	; 0xc0000005
 200277c:	02002f51 	andeq	r2, r0, #324	; 0x144
 2002780:	00000421 	andeq	r0, r0, r1, lsr #8
 2002784:	00007fff 	strdeq	r7, [r0], -pc	; <UNPREDICTABLE>
 2002788:	02000004 	andeq	r0, r0, #4
 200278c:	03001428 	movweq	r1, #1064	; 0x428

02002790 <hrt_PrintOnTilemap>:
 2002790:	b40c      	push	{r2, r3}
 2002792:	b5f7      	push	{r0, r1, r2, r4, r5, r6, r7, lr}
 2002794:	4e11      	ldr	r6, [pc, #68]	; (20027dc <hrt_PrintOnTilemap+0x4c>)
 2002796:	7833      	ldrb	r3, [r6, #0]
 2002798:	0007      	movs	r7, r0
 200279a:	000c      	movs	r4, r1
 200279c:	2b01      	cmp	r3, #1
 200279e:	d111      	bne.n	20027c4 <hrt_PrintOnTilemap+0x34>
 20027a0:	4d0f      	ldr	r5, [pc, #60]	; (20027e0 <hrt_PrintOnTilemap+0x50>)
 20027a2:	aa09      	add	r2, sp, #36	; 0x24
 20027a4:	9201      	str	r2, [sp, #4]
 20027a6:	4b0f      	ldr	r3, [pc, #60]	; (20027e4 <hrt_PrintOnTilemap+0x54>)
 20027a8:	9908      	ldr	r1, [sp, #32]
 20027aa:	0028      	movs	r0, r5
 20027ac:	f000 f832 	bl	2002814 <hrt_ClearTiledText+0x28>
 20027b0:	4b0d      	ldr	r3, [pc, #52]	; (20027e8 <hrt_PrintOnTilemap+0x58>)
 20027b2:	0160      	lsls	r0, r4, #5
 20027b4:	681a      	ldr	r2, [r3, #0]
 20027b6:	19c0      	adds	r0, r0, r7
 20027b8:	782b      	ldrb	r3, [r5, #0]
 20027ba:	2b00      	cmp	r3, #0
 20027bc:	d106      	bne.n	20027cc <hrt_PrintOnTilemap+0x3c>
 20027be:	7ef0      	ldrb	r0, [r6, #27]
 20027c0:	f7ff ff28 	bl	2002614 <hrt_SetPaletteOfTiledText>
 20027c4:	bcf7      	pop	{r0, r1, r2, r4, r5, r6, r7}
 20027c6:	bc08      	pop	{r3}
 20027c8:	b002      	add	sp, #8
 20027ca:	4718      	bx	r3
 20027cc:	0581      	lsls	r1, r0, #22
 20027ce:	0d49      	lsrs	r1, r1, #21
 20027d0:	3320      	adds	r3, #32
 20027d2:	3501      	adds	r5, #1
 20027d4:	528b      	strh	r3, [r1, r2]
 20027d6:	3001      	adds	r0, #1
 20027d8:	e7ee      	b.n	20027b8 <hrt_PrintOnTilemap+0x28>
 20027da:	46c0      	nop			; (mov r8, r8)
 20027dc:	0300120c 	movweq	r1, #524	; 0x20c
 20027e0:	030011ea 	movweq	r1, #490	; 0x1ea
 20027e4:	02006881 	andeq	r6, r0, #8454144	; 0x810000
 20027e8:	03001428 	movweq	r1, #1064	; 0x428

020027ec <hrt_ClearTiledText>:
 20027ec:	4b07      	ldr	r3, [pc, #28]	; (200280c <hrt_ClearTiledText+0x20>)
 20027ee:	781b      	ldrb	r3, [r3, #0]
 20027f0:	2b01      	cmp	r3, #1
 20027f2:	d109      	bne.n	2002808 <hrt_ClearTiledText+0x1c>
 20027f4:	2280      	movs	r2, #128	; 0x80
 20027f6:	2140      	movs	r1, #64	; 0x40
 20027f8:	4b05      	ldr	r3, [pc, #20]	; (2002810 <hrt_ClearTiledText+0x24>)
 20027fa:	681b      	ldr	r3, [r3, #0]
 20027fc:	0112      	lsls	r2, r2, #4
 20027fe:	189a      	adds	r2, r3, r2
 2002800:	8019      	strh	r1, [r3, #0]
 2002802:	3302      	adds	r3, #2
 2002804:	4293      	cmp	r3, r2
 2002806:	d1fb      	bne.n	2002800 <hrt_ClearTiledText+0x14>
 2002808:	4770      	bx	lr
 200280a:	46c0      	nop			; (mov r8, r8)
 200280c:	0300120c 	movweq	r1, #524	; 0x20c
 2002810:	03001428 	movweq	r1, #1064	; 0x428
 2002814:	4718      	bx	r3
 2002816:	4730      	bx	r6
 2002818:	4738      	bx	r7
 200281a:	46c0      	nop			; (mov r8, r8)

0200281c <hrt_SetPaletteOfBGMap>:
 200281c:	4b0c      	ldr	r3, [pc, #48]	; (2002850 <hrt_SetPaletteOfBGMap+0x34>)
 200281e:	781b      	ldrb	r3, [r3, #0]
 2002820:	b510      	push	{r4, lr}
 2002822:	2b01      	cmp	r3, #1
 2002824:	d109      	bne.n	200283a <hrt_SetPaletteOfBGMap+0x1e>
 2002826:	0303      	lsls	r3, r0, #12
 2002828:	480a      	ldr	r0, [pc, #40]	; (2002854 <hrt_SetPaletteOfBGMap+0x38>)
 200282a:	6800      	ldr	r0, [r0, #0]
 200282c:	18c0      	adds	r0, r0, r3
 200282e:	2300      	movs	r3, #0
 2002830:	0312      	lsls	r2, r2, #12
 2002832:	0412      	lsls	r2, r2, #16
 2002834:	1412      	asrs	r2, r2, #16
 2002836:	428b      	cmp	r3, r1
 2002838:	d102      	bne.n	2002840 <hrt_SetPaletteOfBGMap+0x24>
 200283a:	bc10      	pop	{r4}
 200283c:	bc01      	pop	{r0}
 200283e:	4700      	bx	r0
 2002840:	8804      	ldrh	r4, [r0, #0]
 2002842:	3301      	adds	r3, #1
 2002844:	4314      	orrs	r4, r2
 2002846:	041b      	lsls	r3, r3, #16
 2002848:	8004      	strh	r4, [r0, #0]
 200284a:	0c1b      	lsrs	r3, r3, #16
 200284c:	3002      	adds	r0, #2
 200284e:	e7f2      	b.n	2002836 <hrt_SetPaletteOfBGMap+0x1a>
 2002850:	0300120c 	movweq	r1, #524	; 0x20c
 2002854:	03001428 	movweq	r1, #1064	; 0x428

02002858 <hrt_FlipBGBuffer>:
 2002858:	4b09      	ldr	r3, [pc, #36]	; (2002880 <hrt_FlipBGBuffer+0x28>)
 200285a:	781b      	ldrb	r3, [r3, #0]
 200285c:	2b01      	cmp	r3, #1
 200285e:	d10a      	bne.n	2002876 <hrt_FlipBGBuffer+0x1e>
 2002860:	2080      	movs	r0, #128	; 0x80
 2002862:	04c0      	lsls	r0, r0, #19
 2002864:	8802      	ldrh	r2, [r0, #0]
 2002866:	330f      	adds	r3, #15
 2002868:	4906      	ldr	r1, [pc, #24]	; (2002884 <hrt_FlipBGBuffer+0x2c>)
 200286a:	421a      	tst	r2, r3
 200286c:	d004      	beq.n	2002878 <hrt_FlipBGBuffer+0x20>
 200286e:	439a      	bics	r2, r3
 2002870:	8002      	strh	r2, [r0, #0]
 2002872:	684b      	ldr	r3, [r1, #4]
 2002874:	600b      	str	r3, [r1, #0]
 2002876:	4770      	bx	lr
 2002878:	4313      	orrs	r3, r2
 200287a:	8003      	strh	r3, [r0, #0]
 200287c:	688b      	ldr	r3, [r1, #8]
 200287e:	e7f9      	b.n	2002874 <hrt_FlipBGBuffer+0x1c>
 2002880:	0300120c 	movweq	r1, #524	; 0x20c
 2002884:	03001428 	movweq	r1, #1064	; 0x428

02002888 <hrt_GetOffset>:
 2002888:	4a0c      	ldr	r2, [pc, #48]	; (20028bc <hrt_GetOffset+0x34>)
 200288a:	7811      	ldrb	r1, [r2, #0]
 200288c:	b500      	push	{lr}
 200288e:	2300      	movs	r3, #0
 2002890:	2901      	cmp	r1, #1
 2002892:	d107      	bne.n	20028a4 <hrt_GetOffset+0x1c>
 2002894:	2804      	cmp	r0, #4
 2002896:	d805      	bhi.n	20028a4 <hrt_GetOffset+0x1c>
 2002898:	f002 ff84 	bl	20057a4 <__gnu_thumb1_case_uqi>
 200289c:	0b090703 	bleq	22444b0 <__eheap_end+0x2044b0>
 20028a0:	6853000d 	ldmdavs	r3, {r0, r2, r3}^
 20028a4:	0018      	movs	r0, r3
 20028a6:	bc02      	pop	{r1}
 20028a8:	4708      	bx	r1
 20028aa:	6893      	ldr	r3, [r2, #8]
 20028ac:	e7fa      	b.n	20028a4 <hrt_GetOffset+0x1c>
 20028ae:	68d3      	ldr	r3, [r2, #12]
 20028b0:	e7f8      	b.n	20028a4 <hrt_GetOffset+0x1c>
 20028b2:	6953      	ldr	r3, [r2, #20]
 20028b4:	e7f6      	b.n	20028a4 <hrt_GetOffset+0x1c>
 20028b6:	6913      	ldr	r3, [r2, #16]
 20028b8:	e7f4      	b.n	20028a4 <hrt_GetOffset+0x1c>
 20028ba:	46c0      	nop			; (mov r8, r8)
 20028bc:	0300120c 	movweq	r1, #524	; 0x20c

020028c0 <hrt_SetOffset>:
 20028c0:	4b0b      	ldr	r3, [pc, #44]	; (20028f0 <hrt_SetOffset+0x30>)
 20028c2:	781a      	ldrb	r2, [r3, #0]
 20028c4:	b500      	push	{lr}
 20028c6:	2a01      	cmp	r2, #1
 20028c8:	d107      	bne.n	20028da <hrt_SetOffset+0x1a>
 20028ca:	2804      	cmp	r0, #4
 20028cc:	d805      	bhi.n	20028da <hrt_SetOffset+0x1a>
 20028ce:	f002 ff69 	bl	20057a4 <__gnu_thumb1_case_uqi>
 20028d2:	0a080603 	beq	22040e6 <__eheap_end+0x1c40e6>
 20028d6:	6059000c 	subsvs	r0, r9, ip
 20028da:	bc01      	pop	{r0}
 20028dc:	4700      	bx	r0
 20028de:	6099      	str	r1, [r3, #8]
 20028e0:	e7fb      	b.n	20028da <hrt_SetOffset+0x1a>
 20028e2:	60d9      	str	r1, [r3, #12]
 20028e4:	e7f9      	b.n	20028da <hrt_SetOffset+0x1a>
 20028e6:	6159      	str	r1, [r3, #20]
 20028e8:	e7f7      	b.n	20028da <hrt_SetOffset+0x1a>
 20028ea:	6119      	str	r1, [r3, #16]
 20028ec:	e7f5      	b.n	20028da <hrt_SetOffset+0x1a>
 20028ee:	46c0      	nop			; (mov r8, r8)
 20028f0:	0300120c 	movweq	r1, #524	; 0x20c

020028f4 <hrt_DMA_Copy>:
 20028f4:	b570      	push	{r4, r5, r6, lr}
 20028f6:	4c10      	ldr	r4, [pc, #64]	; (2002938 <hrt_DMA_Copy+0x44>)
 20028f8:	7824      	ldrb	r4, [r4, #0]
 20028fa:	2c01      	cmp	r4, #1
 20028fc:	d112      	bne.n	2002924 <hrt_DMA_Copy+0x30>
 20028fe:	340b      	adds	r4, #11
 2002900:	0026      	movs	r6, r4
 2002902:	4346      	muls	r6, r0
 2002904:	4c0d      	ldr	r4, [pc, #52]	; (200293c <hrt_DMA_Copy+0x48>)
 2002906:	1935      	adds	r5, r6, r4
 2002908:	6029      	str	r1, [r5, #0]
 200290a:	490d      	ldr	r1, [pc, #52]	; (2002940 <hrt_DMA_Copy+0x4c>)
 200290c:	1874      	adds	r4, r6, r1
 200290e:	6022      	str	r2, [r4, #0]
 2002910:	2803      	cmp	r0, #3
 2002912:	d807      	bhi.n	2002924 <hrt_DMA_Copy+0x30>
 2002914:	9a04      	ldr	r2, [sp, #16]
 2002916:	4313      	orrs	r3, r2
 2002918:	f002 ff44 	bl	20057a4 <__gnu_thumb1_case_uqi>
 200291c:	0b090702 	bleq	224452c <__eheap_end+0x20452c>
 2002920:	4a08      	ldr	r2, [pc, #32]	; (2002944 <hrt_DMA_Copy+0x50>)
 2002922:	6013      	str	r3, [r2, #0]
 2002924:	bc70      	pop	{r4, r5, r6}
 2002926:	bc01      	pop	{r0}
 2002928:	4700      	bx	r0
 200292a:	4a07      	ldr	r2, [pc, #28]	; (2002948 <hrt_DMA_Copy+0x54>)
 200292c:	e7f9      	b.n	2002922 <hrt_DMA_Copy+0x2e>
 200292e:	4a07      	ldr	r2, [pc, #28]	; (200294c <hrt_DMA_Copy+0x58>)
 2002930:	e7f7      	b.n	2002922 <hrt_DMA_Copy+0x2e>
 2002932:	4a07      	ldr	r2, [pc, #28]	; (2002950 <hrt_DMA_Copy+0x5c>)
 2002934:	e7f5      	b.n	2002922 <hrt_DMA_Copy+0x2e>
 2002936:	46c0      	nop			; (mov r8, r8)
 2002938:	0300120c 	movweq	r1, #524	; 0x20c
 200293c:	040000b0 	streq	r0, [r0], #-176	; 0xffffff50
 2002940:	040000b4 	streq	r0, [r0], #-180	; 0xffffff4c
 2002944:	040000b8 	streq	r0, [r0], #-184	; 0xffffff48
 2002948:	040000c4 	streq	r0, [r0], #-196	; 0xffffff3c
 200294c:	040000d0 	streq	r0, [r0], #-208	; 0xffffff30
 2002950:	040000dc 	streq	r0, [r0], #-220	; 0xffffff24

02002954 <hrt_LoadBGPal>:
 2002954:	4a0b      	ldr	r2, [pc, #44]	; (2002984 <hrt_LoadBGPal+0x30>)
 2002956:	7813      	ldrb	r3, [r2, #0]
 2002958:	b5f0      	push	{r4, r5, r6, r7, lr}
 200295a:	2b01      	cmp	r3, #1
 200295c:	d109      	bne.n	2002972 <hrt_LoadBGPal+0x1e>
 200295e:	4c0a      	ldr	r4, [pc, #40]	; (2002988 <hrt_LoadBGPal+0x34>)
 2002960:	6955      	ldr	r5, [r2, #20]
 2002962:	68e4      	ldr	r4, [r4, #12]
 2002964:	006b      	lsls	r3, r5, #1
 2002966:	18e4      	adds	r4, r4, r3
 2002968:	2300      	movs	r3, #0
 200296a:	4299      	cmp	r1, r3
 200296c:	dc04      	bgt.n	2002978 <hrt_LoadBGPal+0x24>
 200296e:	1949      	adds	r1, r1, r5
 2002970:	6151      	str	r1, [r2, #20]
 2002972:	bcf0      	pop	{r4, r5, r6, r7}
 2002974:	bc01      	pop	{r0}
 2002976:	4700      	bx	r0
 2002978:	005e      	lsls	r6, r3, #1
 200297a:	5b87      	ldrh	r7, [r0, r6]
 200297c:	3301      	adds	r3, #1
 200297e:	53a7      	strh	r7, [r4, r6]
 2002980:	e7f3      	b.n	200296a <hrt_LoadBGPal+0x16>
 2002982:	46c0      	nop			; (mov r8, r8)
 2002984:	0300120c 	movweq	r1, #524	; 0x20c
 2002988:	03001428 	movweq	r1, #1064	; 0x428

0200298c <hrt_DrawPixel>:
 200298c:	b510      	push	{r4, lr}
 200298e:	4c10      	ldr	r4, [pc, #64]	; (20029d0 <hrt_DrawPixel+0x44>)
 2002990:	7824      	ldrb	r4, [r4, #0]
 2002992:	2c01      	cmp	r4, #1
 2002994:	d109      	bne.n	20029aa <hrt_DrawPixel+0x1e>
 2002996:	2803      	cmp	r0, #3
 2002998:	d10a      	bne.n	20029b0 <hrt_DrawPixel+0x24>
 200299a:	30ed      	adds	r0, #237	; 0xed
 200299c:	0004      	movs	r4, r0
 200299e:	4354      	muls	r4, r2
 20029a0:	4a0c      	ldr	r2, [pc, #48]	; (20029d4 <hrt_DrawPixel+0x48>)
 20029a2:	1864      	adds	r4, r4, r1
 20029a4:	6812      	ldr	r2, [r2, #0]
 20029a6:	0064      	lsls	r4, r4, #1
 20029a8:	52a3      	strh	r3, [r4, r2]
 20029aa:	bc10      	pop	{r4}
 20029ac:	bc01      	pop	{r0}
 20029ae:	4700      	bx	r0
 20029b0:	2804      	cmp	r0, #4
 20029b2:	d101      	bne.n	20029b8 <hrt_DrawPixel+0x2c>
 20029b4:	3074      	adds	r0, #116	; 0x74
 20029b6:	e7f1      	b.n	200299c <hrt_DrawPixel+0x10>
 20029b8:	2805      	cmp	r0, #5
 20029ba:	d1f6      	bne.n	20029aa <hrt_DrawPixel+0x1e>
 20029bc:	2478      	movs	r4, #120	; 0x78
 20029be:	0020      	movs	r0, r4
 20029c0:	4350      	muls	r0, r2
 20029c2:	4a04      	ldr	r2, [pc, #16]	; (20029d4 <hrt_DrawPixel+0x48>)
 20029c4:	1840      	adds	r0, r0, r1
 20029c6:	6812      	ldr	r2, [r2, #0]
 20029c8:	0040      	lsls	r0, r0, #1
 20029ca:	5283      	strh	r3, [r0, r2]
 20029cc:	e7ed      	b.n	20029aa <hrt_DrawPixel+0x1e>
 20029ce:	46c0      	nop			; (mov r8, r8)
 20029d0:	0300120c 	movweq	r1, #524	; 0x20c
 20029d4:	03001428 	movweq	r1, #1064	; 0x428

020029d8 <hrt_GetPixelInMode3>:
 20029d8:	4b07      	ldr	r3, [pc, #28]	; (20029f8 <hrt_GetPixelInMode3+0x20>)
 20029da:	781b      	ldrb	r3, [r3, #0]
 20029dc:	2200      	movs	r2, #0
 20029de:	2b01      	cmp	r3, #1
 20029e0:	d107      	bne.n	20029f2 <hrt_GetPixelInMode3+0x1a>
 20029e2:	32f0      	adds	r2, #240	; 0xf0
 20029e4:	0013      	movs	r3, r2
 20029e6:	434b      	muls	r3, r1
 20029e8:	4a04      	ldr	r2, [pc, #16]	; (20029fc <hrt_GetPixelInMode3+0x24>)
 20029ea:	181b      	adds	r3, r3, r0
 20029ec:	6812      	ldr	r2, [r2, #0]
 20029ee:	005b      	lsls	r3, r3, #1
 20029f0:	5a9a      	ldrh	r2, [r3, r2]
 20029f2:	0010      	movs	r0, r2
 20029f4:	4770      	bx	lr
 20029f6:	46c0      	nop			; (mov r8, r8)
 20029f8:	0300120c 	movweq	r1, #524	; 0x20c
 20029fc:	03001428 	movweq	r1, #1064	; 0x428

02002a00 <hrt_GetPixelInMode4>:
 2002a00:	4b0f      	ldr	r3, [pc, #60]	; (2002a40 <hrt_GetPixelInMode4+0x40>)
 2002a02:	781b      	ldrb	r3, [r3, #0]
 2002a04:	b570      	push	{r4, r5, r6, lr}
 2002a06:	2200      	movs	r2, #0
 2002a08:	2b01      	cmp	r3, #1
 2002a0a:	d115      	bne.n	2002a38 <hrt_GetPixelInMode4+0x38>
 2002a0c:	3278      	adds	r2, #120	; 0x78
 2002a0e:	0013      	movs	r3, r2
 2002a10:	434b      	muls	r3, r1
 2002a12:	4c0c      	ldr	r4, [pc, #48]	; (2002a44 <hrt_GetPixelInMode4+0x44>)
 2002a14:	181b      	adds	r3, r3, r0
 2002a16:	6822      	ldr	r2, [r4, #0]
 2002a18:	005b      	lsls	r3, r3, #1
 2002a1a:	5a9d      	ldrh	r5, [r3, r2]
 2002a1c:	4b0a      	ldr	r3, [pc, #40]	; (2002a48 <hrt_GetPixelInMode4+0x48>)
 2002a1e:	0028      	movs	r0, r5
 2002a20:	f001 f91c 	bl	2003c5c <hrt_ToggleBGMosaic+0x1c>
 2002a24:	22ff      	movs	r2, #255	; 0xff
 2002a26:	002b      	movs	r3, r5
 2002a28:	4393      	bics	r3, r2
 2002a2a:	2800      	cmp	r0, #0
 2002a2c:	d001      	beq.n	2002a32 <hrt_GetPixelInMode4+0x32>
 2002a2e:	002b      	movs	r3, r5
 2002a30:	4013      	ands	r3, r2
 2002a32:	68e2      	ldr	r2, [r4, #12]
 2002a34:	005b      	lsls	r3, r3, #1
 2002a36:	5cd2      	ldrb	r2, [r2, r3]
 2002a38:	0010      	movs	r0, r2
 2002a3a:	bc70      	pop	{r4, r5, r6}
 2002a3c:	bc02      	pop	{r1}
 2002a3e:	4708      	bx	r1
 2002a40:	0300120c 	movweq	r1, #524	; 0x20c
 2002a44:	03001428 	movweq	r1, #1064	; 0x428
 2002a48:	02004251 	andeq	r4, r0, #268435461	; 0x10000005

02002a4c <hrt_CyclePalette>:
 2002a4c:	4b1a      	ldr	r3, [pc, #104]	; (2002ab8 <hrt_CyclePalette+0x6c>)
 2002a4e:	781b      	ldrb	r3, [r3, #0]
 2002a50:	b530      	push	{r4, r5, lr}
 2002a52:	2b01      	cmp	r3, #1
 2002a54:	d10c      	bne.n	2002a70 <hrt_CyclePalette+0x24>
 2002a56:	2a00      	cmp	r2, #0
 2002a58:	d117      	bne.n	2002a8a <hrt_CyclePalette+0x3e>
 2002a5a:	24a0      	movs	r4, #160	; 0xa0
 2002a5c:	004b      	lsls	r3, r1, #1
 2002a5e:	04e4      	lsls	r4, r4, #19
 2002a60:	191b      	adds	r3, r3, r4
 2002a62:	4c16      	ldr	r4, [pc, #88]	; (2002abc <hrt_CyclePalette+0x70>)
 2002a64:	8824      	ldrh	r4, [r4, #0]
 2002a66:	801c      	strh	r4, [r3, #0]
 2002a68:	0040      	lsls	r0, r0, #1
 2002a6a:	1c84      	adds	r4, r0, #2
 2002a6c:	428a      	cmp	r2, r1
 2002a6e:	db02      	blt.n	2002a76 <hrt_CyclePalette+0x2a>
 2002a70:	bc30      	pop	{r4, r5}
 2002a72:	bc01      	pop	{r0}
 2002a74:	4700      	bx	r0
 2002a76:	25a0      	movs	r5, #160	; 0xa0
 2002a78:	4b10      	ldr	r3, [pc, #64]	; (2002abc <hrt_CyclePalette+0x70>)
 2002a7a:	18c3      	adds	r3, r0, r3
 2002a7c:	04ed      	lsls	r5, r5, #19
 2002a7e:	881b      	ldrh	r3, [r3, #0]
 2002a80:	1940      	adds	r0, r0, r5
 2002a82:	8003      	strh	r3, [r0, #0]
 2002a84:	3201      	adds	r2, #1
 2002a86:	0020      	movs	r0, r4
 2002a88:	e7ef      	b.n	2002a6a <hrt_CyclePalette+0x1e>
 2002a8a:	2a01      	cmp	r2, #1
 2002a8c:	d1f0      	bne.n	2002a70 <hrt_CyclePalette+0x24>
 2002a8e:	1a0b      	subs	r3, r1, r0
 2002a90:	4a0b      	ldr	r2, [pc, #44]	; (2002ac0 <hrt_CyclePalette+0x74>)
 2002a92:	005b      	lsls	r3, r3, #1
 2002a94:	189b      	adds	r3, r3, r2
 2002a96:	4a0b      	ldr	r2, [pc, #44]	; (2002ac4 <hrt_CyclePalette+0x78>)
 2002a98:	8812      	ldrh	r2, [r2, #0]
 2002a9a:	801a      	strh	r2, [r3, #0]
 2002a9c:	2300      	movs	r3, #0
 2002a9e:	0040      	lsls	r0, r0, #1
 2002aa0:	1c84      	adds	r4, r0, #2
 2002aa2:	428b      	cmp	r3, r1
 2002aa4:	dae4      	bge.n	2002a70 <hrt_CyclePalette+0x24>
 2002aa6:	4a07      	ldr	r2, [pc, #28]	; (2002ac4 <hrt_CyclePalette+0x78>)
 2002aa8:	4d05      	ldr	r5, [pc, #20]	; (2002ac0 <hrt_CyclePalette+0x74>)
 2002aaa:	1882      	adds	r2, r0, r2
 2002aac:	8812      	ldrh	r2, [r2, #0]
 2002aae:	1940      	adds	r0, r0, r5
 2002ab0:	8002      	strh	r2, [r0, #0]
 2002ab2:	3301      	adds	r3, #1
 2002ab4:	0020      	movs	r0, r4
 2002ab6:	e7f3      	b.n	2002aa0 <hrt_CyclePalette+0x54>
 2002ab8:	0300120c 	movweq	r1, #524	; 0x20c
 2002abc:	05000002 	streq	r0, [r0, #-2]
 2002ac0:	05000200 	streq	r0, [r0, #-512]	; 0xfffffe00
 2002ac4:	05000202 	streq	r0, [r0, #-514]	; 0xfffffdfe

02002ac8 <hrt_DrawRectangle>:
 2002ac8:	b5f0      	push	{r4, r5, r6, r7, lr}
 2002aca:	b085      	sub	sp, #20
 2002acc:	9302      	str	r3, [sp, #8]
 2002ace:	ab0a      	add	r3, sp, #40	; 0x28
 2002ad0:	881b      	ldrh	r3, [r3, #0]
 2002ad2:	9303      	str	r3, [sp, #12]
 2002ad4:	4b0e      	ldr	r3, [pc, #56]	; (2002b10 <hrt_DrawRectangle+0x48>)
 2002ad6:	781b      	ldrb	r3, [r3, #0]
 2002ad8:	0006      	movs	r6, r0
 2002ada:	9101      	str	r1, [sp, #4]
 2002adc:	0017      	movs	r7, r2
 2002ade:	0004      	movs	r4, r0
 2002ae0:	2b01      	cmp	r3, #1
 2002ae2:	d00e      	beq.n	2002b02 <hrt_DrawRectangle+0x3a>
 2002ae4:	b005      	add	sp, #20
 2002ae6:	bcf0      	pop	{r4, r5, r6, r7}
 2002ae8:	bc01      	pop	{r0}
 2002aea:	4700      	bx	r0
 2002aec:	9b01      	ldr	r3, [sp, #4]
 2002aee:	0021      	movs	r1, r4
 2002af0:	195a      	adds	r2, r3, r5
 2002af2:	980b      	ldr	r0, [sp, #44]	; 0x2c
 2002af4:	9b03      	ldr	r3, [sp, #12]
 2002af6:	f7ff ff49 	bl	200298c <hrt_DrawPixel>
 2002afa:	3501      	adds	r5, #1
 2002afc:	42bd      	cmp	r5, r7
 2002afe:	dbf5      	blt.n	2002aec <hrt_DrawRectangle+0x24>
 2002b00:	3401      	adds	r4, #1
 2002b02:	9a02      	ldr	r2, [sp, #8]
 2002b04:	1ba3      	subs	r3, r4, r6
 2002b06:	429a      	cmp	r2, r3
 2002b08:	ddec      	ble.n	2002ae4 <hrt_DrawRectangle+0x1c>
 2002b0a:	2500      	movs	r5, #0
 2002b0c:	e7f6      	b.n	2002afc <hrt_DrawRectangle+0x34>
 2002b0e:	46c0      	nop			; (mov r8, r8)
 2002b10:	0300120c 	movweq	r1, #524	; 0x20c

02002b14 <hrt_DrawHollowRectangle>:
 2002b14:	4770      	bx	lr

02002b16 <hrt_FillScreen>:
 2002b16:	4b07      	ldr	r3, [pc, #28]	; (2002b34 <hrt_FillScreen+0x1e>)
 2002b18:	781b      	ldrb	r3, [r3, #0]
 2002b1a:	2b01      	cmp	r3, #1
 2002b1c:	d108      	bne.n	2002b30 <hrt_FillScreen+0x1a>
 2002b1e:	2296      	movs	r2, #150	; 0x96
 2002b20:	4b05      	ldr	r3, [pc, #20]	; (2002b38 <hrt_FillScreen+0x22>)
 2002b22:	681b      	ldr	r3, [r3, #0]
 2002b24:	0252      	lsls	r2, r2, #9
 2002b26:	189a      	adds	r2, r3, r2
 2002b28:	8018      	strh	r0, [r3, #0]
 2002b2a:	3302      	adds	r3, #2
 2002b2c:	4293      	cmp	r3, r2
 2002b2e:	d1fb      	bne.n	2002b28 <hrt_FillScreen+0x12>
 2002b30:	4770      	bx	lr
 2002b32:	46c0      	nop			; (mov r8, r8)
 2002b34:	0300120c 	movweq	r1, #524	; 0x20c
 2002b38:	03001428 	movweq	r1, #1064	; 0x428

02002b3c <hrt_DrawLine>:
 2002b3c:	b5f0      	push	{r4, r5, r6, r7, lr}
 2002b3e:	b089      	sub	sp, #36	; 0x24
 2002b40:	000e      	movs	r6, r1
 2002b42:	a90e      	add	r1, sp, #56	; 0x38
 2002b44:	8809      	ldrh	r1, [r1, #0]
 2002b46:	9107      	str	r1, [sp, #28]
 2002b48:	492d      	ldr	r1, [pc, #180]	; (2002c00 <hrt_DrawLine+0xc4>)
 2002b4a:	780c      	ldrb	r4, [r1, #0]
 2002b4c:	0005      	movs	r5, r0
 2002b4e:	469c      	mov	ip, r3
 2002b50:	2c01      	cmp	r4, #1
 2002b52:	d128      	bne.n	2002ba6 <hrt_DrawLine+0x6a>
 2002b54:	1a11      	subs	r1, r2, r0
 2002b56:	17cb      	asrs	r3, r1, #31
 2002b58:	18c9      	adds	r1, r1, r3
 2002b5a:	4059      	eors	r1, r3
 2002b5c:	4663      	mov	r3, ip
 2002b5e:	1b98      	subs	r0, r3, r6
 2002b60:	17c3      	asrs	r3, r0, #31
 2002b62:	18c0      	adds	r0, r0, r3
 2002b64:	4058      	eors	r0, r3
 2002b66:	4281      	cmp	r1, r0
 2002b68:	db21      	blt.n	2002bae <hrt_DrawLine+0x72>
 2002b6a:	1c4f      	adds	r7, r1, #1
 2002b6c:	9706      	str	r7, [sp, #24]
 2002b6e:	0047      	lsls	r7, r0, #1
 2002b70:	1a7b      	subs	r3, r7, r1
 2002b72:	9702      	str	r7, [sp, #8]
 2002b74:	2700      	movs	r7, #0
 2002b76:	1a41      	subs	r1, r0, r1
 2002b78:	9300      	str	r3, [sp, #0]
 2002b7a:	004b      	lsls	r3, r1, #1
 2002b7c:	9303      	str	r3, [sp, #12]
 2002b7e:	2301      	movs	r3, #1
 2002b80:	9304      	str	r3, [sp, #16]
 2002b82:	42aa      	cmp	r2, r5
 2002b84:	da02      	bge.n	2002b8c <hrt_DrawLine+0x50>
 2002b86:	3b02      	subs	r3, #2
 2002b88:	9304      	str	r3, [sp, #16]
 2002b8a:	4264      	negs	r4, r4
 2002b8c:	2301      	movs	r3, #1
 2002b8e:	9305      	str	r3, [sp, #20]
 2002b90:	45b4      	cmp	ip, r6
 2002b92:	da02      	bge.n	2002b9a <hrt_DrawLine+0x5e>
 2002b94:	3b02      	subs	r3, #2
 2002b96:	9305      	str	r3, [sp, #20]
 2002b98:	427f      	negs	r7, r7
 2002b9a:	2301      	movs	r3, #1
 2002b9c:	9301      	str	r3, [sp, #4]
 2002b9e:	9b01      	ldr	r3, [sp, #4]
 2002ba0:	9a06      	ldr	r2, [sp, #24]
 2002ba2:	4293      	cmp	r3, r2
 2002ba4:	d10f      	bne.n	2002bc6 <hrt_DrawLine+0x8a>
 2002ba6:	b009      	add	sp, #36	; 0x24
 2002ba8:	bcf0      	pop	{r4, r5, r6, r7}
 2002baa:	bc01      	pop	{r0}
 2002bac:	4700      	bx	r0
 2002bae:	004f      	lsls	r7, r1, #1
 2002bb0:	1c43      	adds	r3, r0, #1
 2002bb2:	9306      	str	r3, [sp, #24]
 2002bb4:	1a09      	subs	r1, r1, r0
 2002bb6:	1a3b      	subs	r3, r7, r0
 2002bb8:	9300      	str	r3, [sp, #0]
 2002bba:	004b      	lsls	r3, r1, #1
 2002bbc:	9702      	str	r7, [sp, #8]
 2002bbe:	9303      	str	r3, [sp, #12]
 2002bc0:	0027      	movs	r7, r4
 2002bc2:	2400      	movs	r4, #0
 2002bc4:	e7db      	b.n	2002b7e <hrt_DrawLine+0x42>
 2002bc6:	9b07      	ldr	r3, [sp, #28]
 2002bc8:	0032      	movs	r2, r6
 2002bca:	0029      	movs	r1, r5
 2002bcc:	980f      	ldr	r0, [sp, #60]	; 0x3c
 2002bce:	f7ff fedd 	bl	200298c <hrt_DrawPixel>
 2002bd2:	9b00      	ldr	r3, [sp, #0]
 2002bd4:	2b00      	cmp	r3, #0
 2002bd6:	da08      	bge.n	2002bea <hrt_DrawLine+0xae>
 2002bd8:	9a02      	ldr	r2, [sp, #8]
 2002bda:	4694      	mov	ip, r2
 2002bdc:	4463      	add	r3, ip
 2002bde:	9300      	str	r3, [sp, #0]
 2002be0:	192d      	adds	r5, r5, r4
 2002be2:	19f6      	adds	r6, r6, r7
 2002be4:	9b01      	ldr	r3, [sp, #4]
 2002be6:	3301      	adds	r3, #1
 2002be8:	e7d8      	b.n	2002b9c <hrt_DrawLine+0x60>
 2002bea:	9a03      	ldr	r2, [sp, #12]
 2002bec:	4694      	mov	ip, r2
 2002bee:	9b00      	ldr	r3, [sp, #0]
 2002bf0:	4463      	add	r3, ip
 2002bf2:	9300      	str	r3, [sp, #0]
 2002bf4:	9b04      	ldr	r3, [sp, #16]
 2002bf6:	18ed      	adds	r5, r5, r3
 2002bf8:	9b05      	ldr	r3, [sp, #20]
 2002bfa:	18f6      	adds	r6, r6, r3
 2002bfc:	e7f2      	b.n	2002be4 <hrt_DrawLine+0xa8>
 2002bfe:	46c0      	nop			; (mov r8, r8)
 2002c00:	0300120c 	movweq	r1, #524	; 0x20c

02002c04 <hrt_DrawCircle>:
 2002c04:	b5f0      	push	{r4, r5, r6, r7, lr}
 2002c06:	b087      	sub	sp, #28
 2002c08:	9302      	str	r3, [sp, #8]
 2002c0a:	4b36      	ldr	r3, [pc, #216]	; (2002ce4 <hrt_DrawCircle+0xe0>)
 2002c0c:	781b      	ldrb	r3, [r3, #0]
 2002c0e:	9004      	str	r0, [sp, #16]
 2002c10:	9105      	str	r1, [sp, #20]
 2002c12:	0014      	movs	r4, r2
 2002c14:	2b01      	cmp	r3, #1
 2002c16:	d108      	bne.n	2002c2a <hrt_DrawCircle+0x26>
 2002c18:	0053      	lsls	r3, r2, #1
 2002c1a:	2203      	movs	r2, #3
 2002c1c:	1ad3      	subs	r3, r2, r3
 2002c1e:	9303      	str	r3, [sp, #12]
 2002c20:	2300      	movs	r3, #0
 2002c22:	9301      	str	r3, [sp, #4]
 2002c24:	9b01      	ldr	r3, [sp, #4]
 2002c26:	42a3      	cmp	r3, r4
 2002c28:	dd03      	ble.n	2002c32 <hrt_DrawCircle+0x2e>
 2002c2a:	b007      	add	sp, #28
 2002c2c:	bcf0      	pop	{r4, r5, r6, r7}
 2002c2e:	bc01      	pop	{r0}
 2002c30:	4700      	bx	r0
 2002c32:	9b01      	ldr	r3, [sp, #4]
 2002c34:	9a04      	ldr	r2, [sp, #16]
 2002c36:	189f      	adds	r7, r3, r2
 2002c38:	9b05      	ldr	r3, [sp, #20]
 2002c3a:	191e      	adds	r6, r3, r4
 2002c3c:	0032      	movs	r2, r6
 2002c3e:	0039      	movs	r1, r7
 2002c40:	9b02      	ldr	r3, [sp, #8]
 2002c42:	980c      	ldr	r0, [sp, #48]	; 0x30
 2002c44:	f7ff fea2 	bl	200298c <hrt_DrawPixel>
 2002c48:	9b04      	ldr	r3, [sp, #16]
 2002c4a:	9a01      	ldr	r2, [sp, #4]
 2002c4c:	1a9d      	subs	r5, r3, r2
 2002c4e:	0029      	movs	r1, r5
 2002c50:	0032      	movs	r2, r6
 2002c52:	9b02      	ldr	r3, [sp, #8]
 2002c54:	980c      	ldr	r0, [sp, #48]	; 0x30
 2002c56:	f7ff fe99 	bl	200298c <hrt_DrawPixel>
 2002c5a:	9b05      	ldr	r3, [sp, #20]
 2002c5c:	1b1e      	subs	r6, r3, r4
 2002c5e:	0032      	movs	r2, r6
 2002c60:	0039      	movs	r1, r7
 2002c62:	9b02      	ldr	r3, [sp, #8]
 2002c64:	980c      	ldr	r0, [sp, #48]	; 0x30
 2002c66:	f7ff fe91 	bl	200298c <hrt_DrawPixel>
 2002c6a:	0032      	movs	r2, r6
 2002c6c:	0029      	movs	r1, r5
 2002c6e:	9b02      	ldr	r3, [sp, #8]
 2002c70:	980c      	ldr	r0, [sp, #48]	; 0x30
 2002c72:	f7ff fe8b 	bl	200298c <hrt_DrawPixel>
 2002c76:	9b04      	ldr	r3, [sp, #16]
 2002c78:	9a05      	ldr	r2, [sp, #20]
 2002c7a:	191f      	adds	r7, r3, r4
 2002c7c:	9b01      	ldr	r3, [sp, #4]
 2002c7e:	189e      	adds	r6, r3, r2
 2002c80:	0032      	movs	r2, r6
 2002c82:	9b02      	ldr	r3, [sp, #8]
 2002c84:	0039      	movs	r1, r7
 2002c86:	980c      	ldr	r0, [sp, #48]	; 0x30
 2002c88:	f7ff fe80 	bl	200298c <hrt_DrawPixel>
 2002c8c:	9b04      	ldr	r3, [sp, #16]
 2002c8e:	1b1d      	subs	r5, r3, r4
 2002c90:	0032      	movs	r2, r6
 2002c92:	9b02      	ldr	r3, [sp, #8]
 2002c94:	0029      	movs	r1, r5
 2002c96:	980c      	ldr	r0, [sp, #48]	; 0x30
 2002c98:	f7ff fe78 	bl	200298c <hrt_DrawPixel>
 2002c9c:	9b05      	ldr	r3, [sp, #20]
 2002c9e:	9a01      	ldr	r2, [sp, #4]
 2002ca0:	1a9e      	subs	r6, r3, r2
 2002ca2:	0032      	movs	r2, r6
 2002ca4:	9b02      	ldr	r3, [sp, #8]
 2002ca6:	0039      	movs	r1, r7
 2002ca8:	980c      	ldr	r0, [sp, #48]	; 0x30
 2002caa:	f7ff fe6f 	bl	200298c <hrt_DrawPixel>
 2002cae:	9b02      	ldr	r3, [sp, #8]
 2002cb0:	0032      	movs	r2, r6
 2002cb2:	0029      	movs	r1, r5
 2002cb4:	980c      	ldr	r0, [sp, #48]	; 0x30
 2002cb6:	f7ff fe69 	bl	200298c <hrt_DrawPixel>
 2002cba:	9b01      	ldr	r3, [sp, #4]
 2002cbc:	1c5a      	adds	r2, r3, #1
 2002cbe:	9b03      	ldr	r3, [sp, #12]
 2002cc0:	2b00      	cmp	r3, #0
 2002cc2:	da06      	bge.n	2002cd2 <hrt_DrawCircle+0xce>
 2002cc4:	9903      	ldr	r1, [sp, #12]
 2002cc6:	0093      	lsls	r3, r2, #2
 2002cc8:	3302      	adds	r3, #2
 2002cca:	18cb      	adds	r3, r1, r3
 2002ccc:	9303      	str	r3, [sp, #12]
 2002cce:	9201      	str	r2, [sp, #4]
 2002cd0:	e7a8      	b.n	2002c24 <hrt_DrawCircle+0x20>
 2002cd2:	9b01      	ldr	r3, [sp, #4]
 2002cd4:	1b1b      	subs	r3, r3, r4
 2002cd6:	9903      	ldr	r1, [sp, #12]
 2002cd8:	009b      	lsls	r3, r3, #2
 2002cda:	330a      	adds	r3, #10
 2002cdc:	18cb      	adds	r3, r1, r3
 2002cde:	9303      	str	r3, [sp, #12]
 2002ce0:	3c01      	subs	r4, #1
 2002ce2:	e7f4      	b.n	2002cce <hrt_DrawCircle+0xca>
 2002ce4:	0300120c 	movweq	r1, #524	; 0x20c

02002ce8 <hrt_ScanLines>:
 2002ce8:	b5f0      	push	{r4, r5, r6, r7, lr}
 2002cea:	4b1e      	ldr	r3, [pc, #120]	; (2002d64 <hrt_ScanLines+0x7c>)
 2002cec:	781b      	ldrb	r3, [r3, #0]
 2002cee:	b085      	sub	sp, #20
 2002cf0:	0006      	movs	r6, r0
 2002cf2:	9103      	str	r1, [sp, #12]
 2002cf4:	0015      	movs	r5, r2
 2002cf6:	2b01      	cmp	r3, #1
 2002cf8:	d130      	bne.n	2002d5c <hrt_ScanLines+0x74>
 2002cfa:	23f0      	movs	r3, #240	; 0xf0
 2002cfc:	2701      	movs	r7, #1
 2002cfe:	9301      	str	r3, [sp, #4]
 2002d00:	3301      	adds	r3, #1
 2002d02:	9300      	str	r3, [sp, #0]
 2002d04:	427f      	negs	r7, r7
 2002d06:	2400      	movs	r4, #0
 2002d08:	1c7b      	adds	r3, r7, #1
 2002d0a:	9302      	str	r3, [sp, #8]
 2002d0c:	0022      	movs	r2, r4
 2002d0e:	0033      	movs	r3, r6
 2002d10:	0039      	movs	r1, r7
 2002d12:	0028      	movs	r0, r5
 2002d14:	f7ff fe3a 	bl	200298c <hrt_DrawPixel>
 2002d18:	0022      	movs	r2, r4
 2002d1a:	0033      	movs	r3, r6
 2002d1c:	9902      	ldr	r1, [sp, #8]
 2002d1e:	0028      	movs	r0, r5
 2002d20:	f7ff fe34 	bl	200298c <hrt_DrawPixel>
 2002d24:	1e62      	subs	r2, r4, #1
 2002d26:	0033      	movs	r3, r6
 2002d28:	9900      	ldr	r1, [sp, #0]
 2002d2a:	0028      	movs	r0, r5
 2002d2c:	f7ff fe2e 	bl	200298c <hrt_DrawPixel>
 2002d30:	1e62      	subs	r2, r4, #1
 2002d32:	0033      	movs	r3, r6
 2002d34:	9901      	ldr	r1, [sp, #4]
 2002d36:	0028      	movs	r0, r5
 2002d38:	3402      	adds	r4, #2
 2002d3a:	f7ff fe27 	bl	200298c <hrt_DrawPixel>
 2002d3e:	2ca0      	cmp	r4, #160	; 0xa0
 2002d40:	d1e4      	bne.n	2002d0c <hrt_ScanLines+0x24>
 2002d42:	4b09      	ldr	r3, [pc, #36]	; (2002d68 <hrt_ScanLines+0x80>)
 2002d44:	9803      	ldr	r0, [sp, #12]
 2002d46:	f000 ff89 	bl	2003c5c <hrt_ToggleBGMosaic+0x1c>
 2002d4a:	9b00      	ldr	r3, [sp, #0]
 2002d4c:	3b02      	subs	r3, #2
 2002d4e:	9300      	str	r3, [sp, #0]
 2002d50:	9b01      	ldr	r3, [sp, #4]
 2002d52:	3702      	adds	r7, #2
 2002d54:	3b02      	subs	r3, #2
 2002d56:	9301      	str	r3, [sp, #4]
 2002d58:	2fef      	cmp	r7, #239	; 0xef
 2002d5a:	d1d4      	bne.n	2002d06 <hrt_ScanLines+0x1e>
 2002d5c:	b005      	add	sp, #20
 2002d5e:	bcf0      	pop	{r4, r5, r6, r7}
 2002d60:	bc01      	pop	{r0}
 2002d62:	4700      	bx	r0
 2002d64:	0300120c 	movweq	r1, #524	; 0x20c
 2002d68:	02003fed 	andeq	r3, r0, #948	; 0x3b4

02002d6c <hrt_LeftWipe>:
 2002d6c:	b5f7      	push	{r0, r1, r2, r4, r5, r6, r7, lr}
 2002d6e:	4b0e      	ldr	r3, [pc, #56]	; (2002da8 <hrt_LeftWipe+0x3c>)
 2002d70:	781b      	ldrb	r3, [r3, #0]
 2002d72:	9001      	str	r0, [sp, #4]
 2002d74:	000e      	movs	r6, r1
 2002d76:	0017      	movs	r7, r2
 2002d78:	2b01      	cmp	r3, #1
 2002d7a:	d111      	bne.n	2002da0 <hrt_LeftWipe+0x34>
 2002d7c:	2500      	movs	r5, #0
 2002d7e:	2400      	movs	r4, #0
 2002d80:	0022      	movs	r2, r4
 2002d82:	9b01      	ldr	r3, [sp, #4]
 2002d84:	0029      	movs	r1, r5
 2002d86:	0038      	movs	r0, r7
 2002d88:	3401      	adds	r4, #1
 2002d8a:	f7ff fdff 	bl	200298c <hrt_DrawPixel>
 2002d8e:	2ca0      	cmp	r4, #160	; 0xa0
 2002d90:	d1f6      	bne.n	2002d80 <hrt_LeftWipe+0x14>
 2002d92:	0030      	movs	r0, r6
 2002d94:	4b05      	ldr	r3, [pc, #20]	; (2002dac <hrt_LeftWipe+0x40>)
 2002d96:	3501      	adds	r5, #1
 2002d98:	f000 ff60 	bl	2003c5c <hrt_ToggleBGMosaic+0x1c>
 2002d9c:	2df0      	cmp	r5, #240	; 0xf0
 2002d9e:	d1ee      	bne.n	2002d7e <hrt_LeftWipe+0x12>
 2002da0:	bcf7      	pop	{r0, r1, r2, r4, r5, r6, r7}
 2002da2:	bc01      	pop	{r0}
 2002da4:	4700      	bx	r0
 2002da6:	46c0      	nop			; (mov r8, r8)
 2002da8:	0300120c 	movweq	r1, #524	; 0x20c
 2002dac:	02003fed 	andeq	r3, r0, #948	; 0x3b4

02002db0 <hrt_RightWipe>:
 2002db0:	b5f7      	push	{r0, r1, r2, r4, r5, r6, r7, lr}
 2002db2:	4b0e      	ldr	r3, [pc, #56]	; (2002dec <hrt_RightWipe+0x3c>)
 2002db4:	781b      	ldrb	r3, [r3, #0]
 2002db6:	9001      	str	r0, [sp, #4]
 2002db8:	000e      	movs	r6, r1
 2002dba:	0017      	movs	r7, r2
 2002dbc:	2b01      	cmp	r3, #1
 2002dbe:	d111      	bne.n	2002de4 <hrt_RightWipe+0x34>
 2002dc0:	25f0      	movs	r5, #240	; 0xf0
 2002dc2:	2400      	movs	r4, #0
 2002dc4:	0022      	movs	r2, r4
 2002dc6:	9b01      	ldr	r3, [sp, #4]
 2002dc8:	0029      	movs	r1, r5
 2002dca:	0038      	movs	r0, r7
 2002dcc:	3401      	adds	r4, #1
 2002dce:	f7ff fddd 	bl	200298c <hrt_DrawPixel>
 2002dd2:	2ca0      	cmp	r4, #160	; 0xa0
 2002dd4:	d1f6      	bne.n	2002dc4 <hrt_RightWipe+0x14>
 2002dd6:	0030      	movs	r0, r6
 2002dd8:	4b05      	ldr	r3, [pc, #20]	; (2002df0 <hrt_RightWipe+0x40>)
 2002dda:	3d01      	subs	r5, #1
 2002ddc:	f000 ff3e 	bl	2003c5c <hrt_ToggleBGMosaic+0x1c>
 2002de0:	2d00      	cmp	r5, #0
 2002de2:	d1ee      	bne.n	2002dc2 <hrt_RightWipe+0x12>
 2002de4:	bcf7      	pop	{r0, r1, r2, r4, r5, r6, r7}
 2002de6:	bc01      	pop	{r0}
 2002de8:	4700      	bx	r0
 2002dea:	46c0      	nop			; (mov r8, r8)
 2002dec:	0300120c 	movweq	r1, #524	; 0x20c
 2002df0:	02003fed 	andeq	r3, r0, #948	; 0x3b4

02002df4 <hrt_TopWipe>:
 2002df4:	b5f7      	push	{r0, r1, r2, r4, r5, r6, r7, lr}
 2002df6:	4b0d      	ldr	r3, [pc, #52]	; (2002e2c <hrt_TopWipe+0x38>)
 2002df8:	781b      	ldrb	r3, [r3, #0]
 2002dfa:	9001      	str	r0, [sp, #4]
 2002dfc:	000e      	movs	r6, r1
 2002dfe:	0017      	movs	r7, r2
 2002e00:	2b01      	cmp	r3, #1
 2002e02:	d110      	bne.n	2002e26 <hrt_TopWipe+0x32>
 2002e04:	2500      	movs	r5, #0
 2002e06:	24f0      	movs	r4, #240	; 0xf0
 2002e08:	0021      	movs	r1, r4
 2002e0a:	9b01      	ldr	r3, [sp, #4]
 2002e0c:	002a      	movs	r2, r5
 2002e0e:	0038      	movs	r0, r7
 2002e10:	f7ff fdbc 	bl	200298c <hrt_DrawPixel>
 2002e14:	3c01      	subs	r4, #1
 2002e16:	d2f7      	bcs.n	2002e08 <hrt_TopWipe+0x14>
 2002e18:	0030      	movs	r0, r6
 2002e1a:	4b05      	ldr	r3, [pc, #20]	; (2002e30 <hrt_TopWipe+0x3c>)
 2002e1c:	3501      	adds	r5, #1
 2002e1e:	f000 ff1d 	bl	2003c5c <hrt_ToggleBGMosaic+0x1c>
 2002e22:	2da0      	cmp	r5, #160	; 0xa0
 2002e24:	d1ef      	bne.n	2002e06 <hrt_TopWipe+0x12>
 2002e26:	bcf7      	pop	{r0, r1, r2, r4, r5, r6, r7}
 2002e28:	bc01      	pop	{r0}
 2002e2a:	4700      	bx	r0
 2002e2c:	0300120c 	movweq	r1, #524	; 0x20c
 2002e30:	02003fed 	andeq	r3, r0, #948	; 0x3b4

02002e34 <hrt_BottomWipe>:
 2002e34:	b5f7      	push	{r0, r1, r2, r4, r5, r6, r7, lr}
 2002e36:	4b0e      	ldr	r3, [pc, #56]	; (2002e70 <hrt_BottomWipe+0x3c>)
 2002e38:	781b      	ldrb	r3, [r3, #0]
 2002e3a:	9001      	str	r0, [sp, #4]
 2002e3c:	000e      	movs	r6, r1
 2002e3e:	0017      	movs	r7, r2
 2002e40:	2b01      	cmp	r3, #1
 2002e42:	d111      	bne.n	2002e68 <hrt_BottomWipe+0x34>
 2002e44:	25a0      	movs	r5, #160	; 0xa0
 2002e46:	24f0      	movs	r4, #240	; 0xf0
 2002e48:	0021      	movs	r1, r4
 2002e4a:	9b01      	ldr	r3, [sp, #4]
 2002e4c:	002a      	movs	r2, r5
 2002e4e:	0038      	movs	r0, r7
 2002e50:	3c01      	subs	r4, #1
 2002e52:	f7ff fd9b 	bl	200298c <hrt_DrawPixel>
 2002e56:	2c00      	cmp	r4, #0
 2002e58:	d1f6      	bne.n	2002e48 <hrt_BottomWipe+0x14>
 2002e5a:	0030      	movs	r0, r6
 2002e5c:	4b05      	ldr	r3, [pc, #20]	; (2002e74 <hrt_BottomWipe+0x40>)
 2002e5e:	3d01      	subs	r5, #1
 2002e60:	f000 fefc 	bl	2003c5c <hrt_ToggleBGMosaic+0x1c>
 2002e64:	2d00      	cmp	r5, #0
 2002e66:	d1ee      	bne.n	2002e46 <hrt_BottomWipe+0x12>
 2002e68:	bcf7      	pop	{r0, r1, r2, r4, r5, r6, r7}
 2002e6a:	bc01      	pop	{r0}
 2002e6c:	4700      	bx	r0
 2002e6e:	46c0      	nop			; (mov r8, r8)
 2002e70:	0300120c 	movweq	r1, #524	; 0x20c
 2002e74:	02003fed 	andeq	r3, r0, #948	; 0x3b4

02002e78 <hrt_CircleWipe>:
 2002e78:	4b0c      	ldr	r3, [pc, #48]	; (2002eac <hrt_CircleWipe+0x34>)
 2002e7a:	781b      	ldrb	r3, [r3, #0]
 2002e7c:	b5f7      	push	{r0, r1, r2, r4, r5, r6, r7, lr}
 2002e7e:	0006      	movs	r6, r0
 2002e80:	000d      	movs	r5, r1
 2002e82:	0017      	movs	r7, r2
 2002e84:	2b01      	cmp	r3, #1
 2002e86:	d10e      	bne.n	2002ea6 <hrt_CircleWipe+0x2e>
 2002e88:	2400      	movs	r4, #0
 2002e8a:	0022      	movs	r2, r4
 2002e8c:	0033      	movs	r3, r6
 2002e8e:	2150      	movs	r1, #80	; 0x50
 2002e90:	2078      	movs	r0, #120	; 0x78
 2002e92:	9700      	str	r7, [sp, #0]
 2002e94:	f7ff feb6 	bl	2002c04 <hrt_DrawCircle>
 2002e98:	3401      	adds	r4, #1
 2002e9a:	0028      	movs	r0, r5
 2002e9c:	4b04      	ldr	r3, [pc, #16]	; (2002eb0 <hrt_CircleWipe+0x38>)
 2002e9e:	f000 fedd 	bl	2003c5c <hrt_ToggleBGMosaic+0x1c>
 2002ea2:	2c78      	cmp	r4, #120	; 0x78
 2002ea4:	d1f1      	bne.n	2002e8a <hrt_CircleWipe+0x12>
 2002ea6:	bcf7      	pop	{r0, r1, r2, r4, r5, r6, r7}
 2002ea8:	bc01      	pop	{r0}
 2002eaa:	4700      	bx	r0
 2002eac:	0300120c 	movweq	r1, #524	; 0x20c
 2002eb0:	02003fed 	andeq	r3, r0, #948	; 0x3b4

02002eb4 <hrt_CoolScanLines>:
 2002eb4:	4b14      	ldr	r3, [pc, #80]	; (2002f08 <hrt_CoolScanLines+0x54>)
 2002eb6:	b5f7      	push	{r0, r1, r2, r4, r5, r6, r7, lr}
 2002eb8:	781c      	ldrb	r4, [r3, #0]
 2002eba:	0006      	movs	r6, r0
 2002ebc:	000d      	movs	r5, r1
 2002ebe:	0017      	movs	r7, r2
 2002ec0:	2c01      	cmp	r4, #1
 2002ec2:	d11e      	bne.n	2002f02 <hrt_CoolScanLines+0x4e>
 2002ec4:	0023      	movs	r3, r4
 2002ec6:	0021      	movs	r1, r4
 2002ec8:	22f0      	movs	r2, #240	; 0xf0
 2002eca:	2000      	movs	r0, #0
 2002ecc:	9701      	str	r7, [sp, #4]
 2002ece:	9600      	str	r6, [sp, #0]
 2002ed0:	f7ff fe34 	bl	2002b3c <hrt_DrawLine>
 2002ed4:	3402      	adds	r4, #2
 2002ed6:	0028      	movs	r0, r5
 2002ed8:	4b0c      	ldr	r3, [pc, #48]	; (2002f0c <hrt_CoolScanLines+0x58>)
 2002eda:	f000 febf 	bl	2003c5c <hrt_ToggleBGMosaic+0x1c>
 2002ede:	2ca1      	cmp	r4, #161	; 0xa1
 2002ee0:	d1f0      	bne.n	2002ec4 <hrt_CoolScanLines+0x10>
 2002ee2:	344f      	adds	r4, #79	; 0x4f
 2002ee4:	0023      	movs	r3, r4
 2002ee6:	0021      	movs	r1, r4
 2002ee8:	22f0      	movs	r2, #240	; 0xf0
 2002eea:	2000      	movs	r0, #0
 2002eec:	9701      	str	r7, [sp, #4]
 2002eee:	9600      	str	r6, [sp, #0]
 2002ef0:	f7ff fe24 	bl	2002b3c <hrt_DrawLine>
 2002ef4:	3c02      	subs	r4, #2
 2002ef6:	0028      	movs	r0, r5
 2002ef8:	4b04      	ldr	r3, [pc, #16]	; (2002f0c <hrt_CoolScanLines+0x58>)
 2002efa:	f000 feaf 	bl	2003c5c <hrt_ToggleBGMosaic+0x1c>
 2002efe:	2c00      	cmp	r4, #0
 2002f00:	d1f0      	bne.n	2002ee4 <hrt_CoolScanLines+0x30>
 2002f02:	bcf7      	pop	{r0, r1, r2, r4, r5, r6, r7}
 2002f04:	bc01      	pop	{r0}
 2002f06:	4700      	bx	r0
 2002f08:	0300120c 	movweq	r1, #524	; 0x20c
 2002f0c:	02003fed 	andeq	r3, r0, #948	; 0x3b4

02002f10 <hrt_GetBGPalEntry>:
 2002f10:	4b05      	ldr	r3, [pc, #20]	; (2002f28 <hrt_GetBGPalEntry+0x18>)
 2002f12:	781a      	ldrb	r2, [r3, #0]
 2002f14:	2300      	movs	r3, #0
 2002f16:	2a01      	cmp	r2, #1
 2002f18:	d103      	bne.n	2002f22 <hrt_GetBGPalEntry+0x12>
 2002f1a:	4b04      	ldr	r3, [pc, #16]	; (2002f2c <hrt_GetBGPalEntry+0x1c>)
 2002f1c:	68db      	ldr	r3, [r3, #12]
 2002f1e:	0040      	lsls	r0, r0, #1
 2002f20:	5ac3      	ldrh	r3, [r0, r3]
 2002f22:	0018      	movs	r0, r3
 2002f24:	4770      	bx	lr
 2002f26:	46c0      	nop			; (mov r8, r8)
 2002f28:	0300120c 	movweq	r1, #524	; 0x20c
 2002f2c:	03001428 	movweq	r1, #1064	; 0x428

02002f30 <hrt_GetOBJPalEntry>:
 2002f30:	4b05      	ldr	r3, [pc, #20]	; (2002f48 <hrt_GetOBJPalEntry+0x18>)
 2002f32:	781a      	ldrb	r2, [r3, #0]
 2002f34:	2300      	movs	r3, #0
 2002f36:	2a01      	cmp	r2, #1
 2002f38:	d103      	bne.n	2002f42 <hrt_GetOBJPalEntry+0x12>
 2002f3a:	4b04      	ldr	r3, [pc, #16]	; (2002f4c <hrt_GetOBJPalEntry+0x1c>)
 2002f3c:	681b      	ldr	r3, [r3, #0]
 2002f3e:	0040      	lsls	r0, r0, #1
 2002f40:	5ac3      	ldrh	r3, [r0, r3]
 2002f42:	0018      	movs	r0, r3
 2002f44:	4770      	bx	lr
 2002f46:	46c0      	nop			; (mov r8, r8)
 2002f48:	0300120c 	movweq	r1, #524	; 0x20c
 2002f4c:	0300144c 	movweq	r1, #1100	; 0x44c

02002f50 <hrt_SetBGPalEntry>:
 2002f50:	4b04      	ldr	r3, [pc, #16]	; (2002f64 <hrt_SetBGPalEntry+0x14>)
 2002f52:	781b      	ldrb	r3, [r3, #0]
 2002f54:	2b01      	cmp	r3, #1
 2002f56:	d103      	bne.n	2002f60 <hrt_SetBGPalEntry+0x10>
 2002f58:	4b03      	ldr	r3, [pc, #12]	; (2002f68 <hrt_SetBGPalEntry+0x18>)
 2002f5a:	68db      	ldr	r3, [r3, #12]
 2002f5c:	0040      	lsls	r0, r0, #1
 2002f5e:	52c1      	strh	r1, [r0, r3]
 2002f60:	4770      	bx	lr
 2002f62:	46c0      	nop			; (mov r8, r8)
 2002f64:	0300120c 	movweq	r1, #524	; 0x20c
 2002f68:	03001428 	movweq	r1, #1064	; 0x428

02002f6c <hrt_SetOBJPalEntry>:
 2002f6c:	4b04      	ldr	r3, [pc, #16]	; (2002f80 <hrt_SetOBJPalEntry+0x14>)
 2002f6e:	781b      	ldrb	r3, [r3, #0]
 2002f70:	2b01      	cmp	r3, #1
 2002f72:	d103      	bne.n	2002f7c <hrt_SetOBJPalEntry+0x10>
 2002f74:	4b03      	ldr	r3, [pc, #12]	; (2002f84 <hrt_SetOBJPalEntry+0x18>)
 2002f76:	681b      	ldr	r3, [r3, #0]
 2002f78:	0040      	lsls	r0, r0, #1
 2002f7a:	52c1      	strh	r1, [r0, r3]
 2002f7c:	4770      	bx	lr
 2002f7e:	46c0      	nop			; (mov r8, r8)
 2002f80:	0300120c 	movweq	r1, #524	; 0x20c
 2002f84:	0300144c 	movweq	r1, #1100	; 0x44c

02002f88 <hrt_LoadBGTiles>:
 2002f88:	4a0b      	ldr	r2, [pc, #44]	; (2002fb8 <hrt_LoadBGTiles+0x30>)
 2002f8a:	7813      	ldrb	r3, [r2, #0]
 2002f8c:	b5f0      	push	{r4, r5, r6, r7, lr}
 2002f8e:	2b01      	cmp	r3, #1
 2002f90:	d109      	bne.n	2002fa6 <hrt_LoadBGTiles+0x1e>
 2002f92:	4c0a      	ldr	r4, [pc, #40]	; (2002fbc <hrt_LoadBGTiles+0x34>)
 2002f94:	6915      	ldr	r5, [r2, #16]
 2002f96:	6924      	ldr	r4, [r4, #16]
 2002f98:	006b      	lsls	r3, r5, #1
 2002f9a:	18e4      	adds	r4, r4, r3
 2002f9c:	2300      	movs	r3, #0
 2002f9e:	428b      	cmp	r3, r1
 2002fa0:	db04      	blt.n	2002fac <hrt_LoadBGTiles+0x24>
 2002fa2:	1949      	adds	r1, r1, r5
 2002fa4:	6111      	str	r1, [r2, #16]
 2002fa6:	bcf0      	pop	{r4, r5, r6, r7}
 2002fa8:	bc01      	pop	{r0}
 2002faa:	4700      	bx	r0
 2002fac:	005e      	lsls	r6, r3, #1
 2002fae:	5b87      	ldrh	r7, [r0, r6]
 2002fb0:	3301      	adds	r3, #1
 2002fb2:	53a7      	strh	r7, [r4, r6]
 2002fb4:	e7f3      	b.n	2002f9e <hrt_LoadBGTiles+0x16>
 2002fb6:	46c0      	nop			; (mov r8, r8)
 2002fb8:	0300120c 	movweq	r1, #524	; 0x20c
 2002fbc:	03001428 	movweq	r1, #1064	; 0x428

02002fc0 <hrt_LoadBGMap>:
 2002fc0:	4a0b      	ldr	r2, [pc, #44]	; (2002ff0 <hrt_LoadBGMap+0x30>)
 2002fc2:	7813      	ldrb	r3, [r2, #0]
 2002fc4:	b5f0      	push	{r4, r5, r6, r7, lr}
 2002fc6:	2b01      	cmp	r3, #1
 2002fc8:	d109      	bne.n	2002fde <hrt_LoadBGMap+0x1e>
 2002fca:	4c0a      	ldr	r4, [pc, #40]	; (2002ff4 <hrt_LoadBGMap+0x34>)
 2002fcc:	68d5      	ldr	r5, [r2, #12]
 2002fce:	6824      	ldr	r4, [r4, #0]
 2002fd0:	006b      	lsls	r3, r5, #1
 2002fd2:	18e4      	adds	r4, r4, r3
 2002fd4:	2300      	movs	r3, #0
 2002fd6:	428b      	cmp	r3, r1
 2002fd8:	db04      	blt.n	2002fe4 <hrt_LoadBGMap+0x24>
 2002fda:	1949      	adds	r1, r1, r5
 2002fdc:	60d1      	str	r1, [r2, #12]
 2002fde:	bcf0      	pop	{r4, r5, r6, r7}
 2002fe0:	bc01      	pop	{r0}
 2002fe2:	4700      	bx	r0
 2002fe4:	005e      	lsls	r6, r3, #1
 2002fe6:	5b87      	ldrh	r7, [r0, r6]
 2002fe8:	3301      	adds	r3, #1
 2002fea:	53a7      	strh	r7, [r4, r6]
 2002fec:	e7f3      	b.n	2002fd6 <hrt_LoadBGMap+0x16>
 2002fee:	46c0      	nop			; (mov r8, r8)
 2002ff0:	0300120c 	movweq	r1, #524	; 0x20c
 2002ff4:	03001428 	movweq	r1, #1064	; 0x428

02002ff8 <hrt_FillPalette>:
 2002ff8:	4b14      	ldr	r3, [pc, #80]	; (200304c <hrt_FillPalette+0x54>)
 2002ffa:	781b      	ldrb	r3, [r3, #0]
 2002ffc:	b510      	push	{r4, lr}
 2002ffe:	2b01      	cmp	r3, #1
 2003000:	d10a      	bne.n	2003018 <hrt_FillPalette+0x20>
 2003002:	2800      	cmp	r0, #0
 2003004:	d10b      	bne.n	200301e <hrt_FillPalette+0x26>
 2003006:	2280      	movs	r2, #128	; 0x80
 2003008:	4b11      	ldr	r3, [pc, #68]	; (2003050 <hrt_FillPalette+0x58>)
 200300a:	68db      	ldr	r3, [r3, #12]
 200300c:	0092      	lsls	r2, r2, #2
 200300e:	189a      	adds	r2, r3, r2
 2003010:	8019      	strh	r1, [r3, #0]
 2003012:	3302      	adds	r3, #2
 2003014:	429a      	cmp	r2, r3
 2003016:	d1fb      	bne.n	2003010 <hrt_FillPalette+0x18>
 2003018:	bc10      	pop	{r4}
 200301a:	bc01      	pop	{r0}
 200301c:	4700      	bx	r0
 200301e:	2801      	cmp	r0, #1
 2003020:	d109      	bne.n	2003036 <hrt_FillPalette+0x3e>
 2003022:	2280      	movs	r2, #128	; 0x80
 2003024:	4b0b      	ldr	r3, [pc, #44]	; (2003054 <hrt_FillPalette+0x5c>)
 2003026:	681b      	ldr	r3, [r3, #0]
 2003028:	0092      	lsls	r2, r2, #2
 200302a:	189a      	adds	r2, r3, r2
 200302c:	8019      	strh	r1, [r3, #0]
 200302e:	3302      	adds	r3, #2
 2003030:	4293      	cmp	r3, r2
 2003032:	d1fb      	bne.n	200302c <hrt_FillPalette+0x34>
 2003034:	e7f0      	b.n	2003018 <hrt_FillPalette+0x20>
 2003036:	2280      	movs	r2, #128	; 0x80
 2003038:	2143      	movs	r1, #67	; 0x43
 200303a:	04d2      	lsls	r2, r2, #19
 200303c:	8011      	strh	r1, [r2, #0]
 200303e:	4806      	ldr	r0, [pc, #24]	; (2003058 <hrt_FillPalette+0x60>)
 2003040:	0019      	movs	r1, r3
 2003042:	4a06      	ldr	r2, [pc, #24]	; (200305c <hrt_FillPalette+0x64>)
 2003044:	4b06      	ldr	r3, [pc, #24]	; (2003060 <hrt_FillPalette+0x68>)
 2003046:	f000 fe09 	bl	2003c5c <hrt_ToggleBGMosaic+0x1c>
 200304a:	e7fe      	b.n	200304a <hrt_FillPalette+0x52>
 200304c:	0300120c 	movweq	r1, #524	; 0x20c
 2003050:	03001428 	movweq	r1, #1064	; 0x428
 2003054:	0300144c 	movweq	r1, #1100	; 0x44c
 2003058:	0200f7ce 	andeq	pc, r0, #54001664	; 0x3380000
 200305c:	0200f7bd 	andeq	pc, r0, #49545216	; 0x2f40000
 2003060:	02003e9d 	andeq	r3, r0, #2512	; 0x9d0

02003064 <hrt_SetDSPMode>:
 2003064:	b5f0      	push	{r4, r5, r6, r7, lr}
 2003066:	2615      	movs	r6, #21
 2003068:	b089      	sub	sp, #36	; 0x24
 200306a:	9301      	str	r3, [sp, #4]
 200306c:	ab09      	add	r3, sp, #36	; 0x24
 200306e:	18f6      	adds	r6, r6, r3
 2003070:	7ff7      	ldrb	r7, [r6, #31]
 2003072:	2619      	movs	r6, #25
 2003074:	ac0e      	add	r4, sp, #56	; 0x38
 2003076:	7824      	ldrb	r4, [r4, #0]
 2003078:	9402      	str	r4, [sp, #8]
 200307a:	ac0f      	add	r4, sp, #60	; 0x3c
 200307c:	7824      	ldrb	r4, [r4, #0]
 200307e:	9403      	str	r4, [sp, #12]
 2003080:	ac10      	add	r4, sp, #64	; 0x40
 2003082:	7824      	ldrb	r4, [r4, #0]
 2003084:	9404      	str	r4, [sp, #16]
 2003086:	ac11      	add	r4, sp, #68	; 0x44
 2003088:	7824      	ldrb	r4, [r4, #0]
 200308a:	9405      	str	r4, [sp, #20]
 200308c:	ac12      	add	r4, sp, #72	; 0x48
 200308e:	7824      	ldrb	r4, [r4, #0]
 2003090:	18f6      	adds	r6, r6, r3
 2003092:	9406      	str	r4, [sp, #24]
 2003094:	4b19      	ldr	r3, [pc, #100]	; (20030fc <hrt_SetDSPMode+0x98>)
 2003096:	ac13      	add	r4, sp, #76	; 0x4c
 2003098:	7824      	ldrb	r4, [r4, #0]
 200309a:	781b      	ldrb	r3, [r3, #0]
 200309c:	9407      	str	r4, [sp, #28]
 200309e:	ad15      	add	r5, sp, #84	; 0x54
 20030a0:	ac14      	add	r4, sp, #80	; 0x50
 20030a2:	7824      	ldrb	r4, [r4, #0]
 20030a4:	782d      	ldrb	r5, [r5, #0]
 20030a6:	7ff6      	ldrb	r6, [r6, #31]
 20030a8:	2b01      	cmp	r3, #1
 20030aa:	d123      	bne.n	20030f4 <hrt_SetDSPMode+0x90>
 20030ac:	03bf      	lsls	r7, r7, #14
 20030ae:	03f6      	lsls	r6, r6, #15
 20030b0:	9b07      	ldr	r3, [sp, #28]
 20030b2:	4337      	orrs	r7, r6
 20030b4:	036d      	lsls	r5, r5, #13
 20030b6:	0324      	lsls	r4, r4, #12
 20030b8:	432f      	orrs	r7, r5
 20030ba:	4327      	orrs	r7, r4
 20030bc:	02dc      	lsls	r4, r3, #11
 20030be:	9b06      	ldr	r3, [sp, #24]
 20030c0:	4327      	orrs	r7, r4
 20030c2:	029c      	lsls	r4, r3, #10
 20030c4:	9b05      	ldr	r3, [sp, #20]
 20030c6:	433c      	orrs	r4, r7
 20030c8:	025f      	lsls	r7, r3, #9
 20030ca:	9b04      	ldr	r3, [sp, #16]
 20030cc:	433c      	orrs	r4, r7
 20030ce:	021f      	lsls	r7, r3, #8
 20030d0:	9b03      	ldr	r3, [sp, #12]
 20030d2:	433c      	orrs	r4, r7
 20030d4:	01df      	lsls	r7, r3, #7
 20030d6:	9b02      	ldr	r3, [sp, #8]
 20030d8:	433c      	orrs	r4, r7
 20030da:	019f      	lsls	r7, r3, #6
 20030dc:	9b01      	ldr	r3, [sp, #4]
 20030de:	433c      	orrs	r4, r7
 20030e0:	015b      	lsls	r3, r3, #5
 20030e2:	431c      	orrs	r4, r3
 20030e4:	2380      	movs	r3, #128	; 0x80
 20030e6:	4304      	orrs	r4, r0
 20030e8:	0112      	lsls	r2, r2, #4
 20030ea:	4314      	orrs	r4, r2
 20030ec:	00c9      	lsls	r1, r1, #3
 20030ee:	430c      	orrs	r4, r1
 20030f0:	04db      	lsls	r3, r3, #19
 20030f2:	801c      	strh	r4, [r3, #0]
 20030f4:	b009      	add	sp, #36	; 0x24
 20030f6:	bcf0      	pop	{r4, r5, r6, r7}
 20030f8:	bc01      	pop	{r0}
 20030fa:	4700      	bx	r0
 20030fc:	0300120c 	movweq	r1, #524	; 0x20c

02003100 <hrt_ConfigBG>:
 2003100:	b5f7      	push	{r0, r1, r2, r4, r5, r6, r7, lr}
 2003102:	9301      	str	r3, [sp, #4]
 2003104:	4b10      	ldr	r3, [pc, #64]	; (2003148 <hrt_ConfigBG+0x48>)
 2003106:	ac08      	add	r4, sp, #32
 2003108:	7825      	ldrb	r5, [r4, #0]
 200310a:	781b      	ldrb	r3, [r3, #0]
 200310c:	ac09      	add	r4, sp, #36	; 0x24
 200310e:	7826      	ldrb	r6, [r4, #0]
 2003110:	af0b      	add	r7, sp, #44	; 0x2c
 2003112:	ac0a      	add	r4, sp, #40	; 0x28
 2003114:	7824      	ldrb	r4, [r4, #0]
 2003116:	783f      	ldrb	r7, [r7, #0]
 2003118:	2b01      	cmp	r3, #1
 200311a:	d112      	bne.n	2003142 <hrt_ConfigBG+0x42>
 200311c:	4b0b      	ldr	r3, [pc, #44]	; (200314c <hrt_ConfigBG+0x4c>)
 200311e:	0364      	lsls	r4, r4, #13
 2003120:	03bf      	lsls	r7, r7, #14
 2003122:	433c      	orrs	r4, r7
 2003124:	0236      	lsls	r6, r6, #8
 2003126:	18c0      	adds	r0, r0, r3
 2003128:	4334      	orrs	r4, r6
 200312a:	01ed      	lsls	r5, r5, #7
 200312c:	9b01      	ldr	r3, [sp, #4]
 200312e:	432c      	orrs	r4, r5
 2003130:	4321      	orrs	r1, r4
 2003132:	019b      	lsls	r3, r3, #6
 2003134:	4319      	orrs	r1, r3
 2003136:	0092      	lsls	r2, r2, #2
 2003138:	4311      	orrs	r1, r2
 200313a:	0409      	lsls	r1, r1, #16
 200313c:	0040      	lsls	r0, r0, #1
 200313e:	0c09      	lsrs	r1, r1, #16
 2003140:	8001      	strh	r1, [r0, #0]
 2003142:	bcf7      	pop	{r0, r1, r2, r4, r5, r6, r7}
 2003144:	bc01      	pop	{r0}
 2003146:	4700      	bx	r0
 2003148:	0300120c 	movweq	r1, #524	; 0x20c
 200314c:	02000004 	andeq	r0, r0, #4

02003150 <hrt_LineWipe>:
 2003150:	4b15      	ldr	r3, [pc, #84]	; (20031a8 <hrt_LineWipe+0x58>)
 2003152:	781b      	ldrb	r3, [r3, #0]
 2003154:	b5f7      	push	{r0, r1, r2, r4, r5, r6, r7, lr}
 2003156:	0006      	movs	r6, r0
 2003158:	000d      	movs	r5, r1
 200315a:	0017      	movs	r7, r2
 200315c:	2b01      	cmp	r3, #1
 200315e:	d11f      	bne.n	20031a0 <hrt_LineWipe+0x50>
 2003160:	2400      	movs	r4, #0
 2003162:	2200      	movs	r2, #0
 2003164:	0023      	movs	r3, r4
 2003166:	0011      	movs	r1, r2
 2003168:	20f0      	movs	r0, #240	; 0xf0
 200316a:	9701      	str	r7, [sp, #4]
 200316c:	9600      	str	r6, [sp, #0]
 200316e:	f7ff fce5 	bl	2002b3c <hrt_DrawLine>
 2003172:	3401      	adds	r4, #1
 2003174:	0028      	movs	r0, r5
 2003176:	4b0d      	ldr	r3, [pc, #52]	; (20031ac <hrt_LineWipe+0x5c>)
 2003178:	f000 fd70 	bl	2003c5c <hrt_ToggleBGMosaic+0x1c>
 200317c:	2ca0      	cmp	r4, #160	; 0xa0
 200317e:	d1f0      	bne.n	2003162 <hrt_LineWipe+0x12>
 2003180:	2400      	movs	r4, #0
 2003182:	0022      	movs	r2, r4
 2003184:	23a0      	movs	r3, #160	; 0xa0
 2003186:	2100      	movs	r1, #0
 2003188:	20f0      	movs	r0, #240	; 0xf0
 200318a:	9701      	str	r7, [sp, #4]
 200318c:	9600      	str	r6, [sp, #0]
 200318e:	f7ff fcd5 	bl	2002b3c <hrt_DrawLine>
 2003192:	3401      	adds	r4, #1
 2003194:	0028      	movs	r0, r5
 2003196:	4b05      	ldr	r3, [pc, #20]	; (20031ac <hrt_LineWipe+0x5c>)
 2003198:	f000 fd60 	bl	2003c5c <hrt_ToggleBGMosaic+0x1c>
 200319c:	2cf0      	cmp	r4, #240	; 0xf0
 200319e:	d1f0      	bne.n	2003182 <hrt_LineWipe+0x32>
 20031a0:	bcf7      	pop	{r0, r1, r2, r4, r5, r6, r7}
 20031a2:	bc01      	pop	{r0}
 20031a4:	4700      	bx	r0
 20031a6:	46c0      	nop			; (mov r8, r8)
 20031a8:	0300120c 	movweq	r1, #524	; 0x20c
 20031ac:	02003fed 	andeq	r3, r0, #948	; 0x3b4

020031b0 <hrt_LoadOBJPal>:
 20031b0:	4a0b      	ldr	r2, [pc, #44]	; (20031e0 <hrt_LoadOBJPal+0x30>)
 20031b2:	7813      	ldrb	r3, [r2, #0]
 20031b4:	b5f0      	push	{r4, r5, r6, r7, lr}
 20031b6:	2b01      	cmp	r3, #1
 20031b8:	d109      	bne.n	20031ce <hrt_LoadOBJPal+0x1e>
 20031ba:	4c0a      	ldr	r4, [pc, #40]	; (20031e4 <hrt_LoadOBJPal+0x34>)
 20031bc:	6895      	ldr	r5, [r2, #8]
 20031be:	6824      	ldr	r4, [r4, #0]
 20031c0:	006b      	lsls	r3, r5, #1
 20031c2:	18e4      	adds	r4, r4, r3
 20031c4:	2300      	movs	r3, #0
 20031c6:	4299      	cmp	r1, r3
 20031c8:	dc04      	bgt.n	20031d4 <hrt_LoadOBJPal+0x24>
 20031ca:	1949      	adds	r1, r1, r5
 20031cc:	6091      	str	r1, [r2, #8]
 20031ce:	bcf0      	pop	{r4, r5, r6, r7}
 20031d0:	bc01      	pop	{r0}
 20031d2:	4700      	bx	r0
 20031d4:	005e      	lsls	r6, r3, #1
 20031d6:	5b87      	ldrh	r7, [r0, r6]
 20031d8:	3301      	adds	r3, #1
 20031da:	53a7      	strh	r7, [r4, r6]
 20031dc:	e7f3      	b.n	20031c6 <hrt_LoadOBJPal+0x16>
 20031de:	46c0      	nop			; (mov r8, r8)
 20031e0:	0300120c 	movweq	r1, #524	; 0x20c
 20031e4:	0300144c 	movweq	r1, #1100	; 0x44c

020031e8 <hrt_LoadOBJGFX>:
 20031e8:	4a0c      	ldr	r2, [pc, #48]	; (200321c <hrt_LoadOBJGFX+0x34>)
 20031ea:	7813      	ldrb	r3, [r2, #0]
 20031ec:	b5f0      	push	{r4, r5, r6, r7, lr}
 20031ee:	2b01      	cmp	r3, #1
 20031f0:	d10c      	bne.n	200320c <hrt_LoadOBJGFX+0x24>
 20031f2:	2480      	movs	r4, #128	; 0x80
 20031f4:	6855      	ldr	r5, [r2, #4]
 20031f6:	01e4      	lsls	r4, r4, #7
 20031f8:	006b      	lsls	r3, r5, #1
 20031fa:	191b      	adds	r3, r3, r4
 20031fc:	4c08      	ldr	r4, [pc, #32]	; (2003220 <hrt_LoadOBJGFX+0x38>)
 20031fe:	6824      	ldr	r4, [r4, #0]
 2003200:	18e4      	adds	r4, r4, r3
 2003202:	2300      	movs	r3, #0
 2003204:	428b      	cmp	r3, r1
 2003206:	db04      	blt.n	2003212 <hrt_LoadOBJGFX+0x2a>
 2003208:	1949      	adds	r1, r1, r5
 200320a:	6051      	str	r1, [r2, #4]
 200320c:	bcf0      	pop	{r4, r5, r6, r7}
 200320e:	bc01      	pop	{r0}
 2003210:	4700      	bx	r0
 2003212:	005e      	lsls	r6, r3, #1
 2003214:	5b87      	ldrh	r7, [r0, r6]
 2003216:	3301      	adds	r3, #1
 2003218:	53a7      	strh	r7, [r4, r6]
 200321a:	e7f3      	b.n	2003204 <hrt_LoadOBJGFX+0x1c>
 200321c:	0300120c 	movweq	r1, #524	; 0x20c
 2003220:	03001448 	movweq	r1, #1096	; 0x448

02003224 <hrt_SetTile>:
 2003224:	4b05      	ldr	r3, [pc, #20]	; (200323c <hrt_SetTile+0x18>)
 2003226:	781b      	ldrb	r3, [r3, #0]
 2003228:	2b01      	cmp	r3, #1
 200322a:	d105      	bne.n	2003238 <hrt_SetTile+0x14>
 200322c:	4b04      	ldr	r3, [pc, #16]	; (2003240 <hrt_SetTile+0x1c>)
 200322e:	0209      	lsls	r1, r1, #8
 2003230:	1809      	adds	r1, r1, r0
 2003232:	681b      	ldr	r3, [r3, #0]
 2003234:	0049      	lsls	r1, r1, #1
 2003236:	52ca      	strh	r2, [r1, r3]
 2003238:	4770      	bx	lr
 200323a:	46c0      	nop			; (mov r8, r8)
 200323c:	0300120c 	movweq	r1, #524	; 0x20c
 2003240:	03001428 	movweq	r1, #1064	; 0x428

02003244 <hrt_ConfigDMA>:
 2003244:	b5f7      	push	{r0, r1, r2, r4, r5, r6, r7, lr}
 2003246:	0005      	movs	r5, r0
 2003248:	a808      	add	r0, sp, #32
 200324a:	7806      	ldrb	r6, [r0, #0]
 200324c:	a809      	add	r0, sp, #36	; 0x24
 200324e:	7804      	ldrb	r4, [r0, #0]
 2003250:	a80a      	add	r0, sp, #40	; 0x28
 2003252:	7807      	ldrb	r7, [r0, #0]
 2003254:	480c      	ldr	r0, [pc, #48]	; (2003288 <hrt_ConfigDMA+0x44>)
 2003256:	7800      	ldrb	r0, [r0, #0]
 2003258:	4684      	mov	ip, r0
 200325a:	9301      	str	r3, [sp, #4]
 200325c:	4663      	mov	r3, ip
 200325e:	2000      	movs	r0, #0
 2003260:	2b01      	cmp	r3, #1
 2003262:	d10e      	bne.n	2003282 <hrt_ConfigDMA+0x3e>
 2003264:	03a4      	lsls	r4, r4, #14
 2003266:	03ff      	lsls	r7, r7, #15
 2003268:	9b01      	ldr	r3, [sp, #4]
 200326a:	433c      	orrs	r4, r7
 200326c:	0336      	lsls	r6, r6, #12
 200326e:	4334      	orrs	r4, r6
 2003270:	029b      	lsls	r3, r3, #10
 2003272:	431c      	orrs	r4, r3
 2003274:	0252      	lsls	r2, r2, #9
 2003276:	4314      	orrs	r4, r2
 2003278:	01c9      	lsls	r1, r1, #7
 200327a:	430c      	orrs	r4, r1
 200327c:	0020      	movs	r0, r4
 200327e:	016d      	lsls	r5, r5, #5
 2003280:	4328      	orrs	r0, r5
 2003282:	bcfe      	pop	{r1, r2, r3, r4, r5, r6, r7}
 2003284:	bc02      	pop	{r1}
 2003286:	4708      	bx	r1
 2003288:	0300120c 	movweq	r1, #524	; 0x20c

0200328c <hrt_GenerateColorFromRGB>:
 200328c:	0003      	movs	r3, r0
 200328e:	4807      	ldr	r0, [pc, #28]	; (20032ac <hrt_GenerateColorFromRGB+0x20>)
 2003290:	b510      	push	{r4, lr}
 2003292:	7804      	ldrb	r4, [r0, #0]
 2003294:	2000      	movs	r0, #0
 2003296:	2c01      	cmp	r4, #1
 2003298:	d105      	bne.n	20032a6 <hrt_GenerateColorFromRGB+0x1a>
 200329a:	0292      	lsls	r2, r2, #10
 200329c:	431a      	orrs	r2, r3
 200329e:	0149      	lsls	r1, r1, #5
 20032a0:	430a      	orrs	r2, r1
 20032a2:	0410      	lsls	r0, r2, #16
 20032a4:	0c00      	lsrs	r0, r0, #16
 20032a6:	bc10      	pop	{r4}
 20032a8:	bc02      	pop	{r1}
 20032aa:	4708      	bx	r1
 20032ac:	0300120c 	movweq	r1, #524	; 0x20c

020032b0 <hrt_GetRedValueFromBGR>:
 20032b0:	4a04      	ldr	r2, [pc, #16]	; (20032c4 <hrt_GetRedValueFromBGR+0x14>)
 20032b2:	7812      	ldrb	r2, [r2, #0]
 20032b4:	0003      	movs	r3, r0
 20032b6:	2000      	movs	r0, #0
 20032b8:	2a01      	cmp	r2, #1
 20032ba:	d102      	bne.n	20032c2 <hrt_GetRedValueFromBGR+0x12>
 20032bc:	00db      	lsls	r3, r3, #3
 20032be:	30ff      	adds	r0, #255	; 0xff
 20032c0:	4018      	ands	r0, r3
 20032c2:	4770      	bx	lr
 20032c4:	0300120c 	movweq	r1, #524	; 0x20c

020032c8 <hrt_GetGreenValueFromBGR>:
 20032c8:	4a05      	ldr	r2, [pc, #20]	; (20032e0 <hrt_GetGreenValueFromBGR+0x18>)
 20032ca:	7812      	ldrb	r2, [r2, #0]
 20032cc:	0003      	movs	r3, r0
 20032ce:	2000      	movs	r0, #0
 20032d0:	2a01      	cmp	r2, #1
 20032d2:	d103      	bne.n	20032dc <hrt_GetGreenValueFromBGR+0x14>
 20032d4:	095b      	lsrs	r3, r3, #5
 20032d6:	00db      	lsls	r3, r3, #3
 20032d8:	30ff      	adds	r0, #255	; 0xff
 20032da:	4018      	ands	r0, r3
 20032dc:	4770      	bx	lr
 20032de:	46c0      	nop			; (mov r8, r8)
 20032e0:	0300120c 	movweq	r1, #524	; 0x20c

020032e4 <hrt_GetBlueValueFromBGR>:
 20032e4:	4a05      	ldr	r2, [pc, #20]	; (20032fc <hrt_GetBlueValueFromBGR+0x18>)
 20032e6:	7812      	ldrb	r2, [r2, #0]
 20032e8:	0003      	movs	r3, r0
 20032ea:	2000      	movs	r0, #0
 20032ec:	2a01      	cmp	r2, #1
 20032ee:	d103      	bne.n	20032f8 <hrt_GetBlueValueFromBGR+0x14>
 20032f0:	0a9b      	lsrs	r3, r3, #10
 20032f2:	00db      	lsls	r3, r3, #3
 20032f4:	30ff      	adds	r0, #255	; 0xff
 20032f6:	4018      	ands	r0, r3
 20032f8:	4770      	bx	lr
 20032fa:	46c0      	nop			; (mov r8, r8)
 20032fc:	0300120c 	movweq	r1, #524	; 0x20c

02003300 <hrt_InvertPalette>:
 2003300:	b5f0      	push	{r4, r5, r6, r7, lr}
 2003302:	4b2c      	ldr	r3, [pc, #176]	; (20033b4 <hrt_InvertPalette+0xb4>)
 2003304:	781b      	ldrb	r3, [r3, #0]
 2003306:	b085      	sub	sp, #20
 2003308:	9102      	str	r1, [sp, #8]
 200330a:	0016      	movs	r6, r2
 200330c:	2b01      	cmp	r3, #1
 200330e:	d107      	bne.n	2003320 <hrt_InvertPalette+0x20>
 2003310:	2a00      	cmp	r2, #0
 2003312:	d128      	bne.n	2003366 <hrt_InvertPalette+0x66>
 2003314:	0040      	lsls	r0, r0, #1
 2003316:	1c83      	adds	r3, r0, #2
 2003318:	9301      	str	r3, [sp, #4]
 200331a:	9b02      	ldr	r3, [sp, #8]
 200331c:	429e      	cmp	r6, r3
 200331e:	db03      	blt.n	2003328 <hrt_InvertPalette+0x28>
 2003320:	b005      	add	sp, #20
 2003322:	bcf0      	pop	{r4, r5, r6, r7}
 2003324:	bc01      	pop	{r0}
 2003326:	4700      	bx	r0
 2003328:	23a0      	movs	r3, #160	; 0xa0
 200332a:	04db      	lsls	r3, r3, #19
 200332c:	18c4      	adds	r4, r0, r3
 200332e:	8827      	ldrh	r7, [r4, #0]
 2003330:	0038      	movs	r0, r7
 2003332:	f7ff ffbd 	bl	20032b0 <hrt_GetRedValueFromBGR>
 2003336:	9003      	str	r0, [sp, #12]
 2003338:	0038      	movs	r0, r7
 200333a:	f7ff ffc5 	bl	20032c8 <hrt_GetGreenValueFromBGR>
 200333e:	0005      	movs	r5, r0
 2003340:	0038      	movs	r0, r7
 2003342:	f7ff ffcf 	bl	20032e4 <hrt_GetBlueValueFromBGR>
 2003346:	9b03      	ldr	r3, [sp, #12]
 2003348:	43c2      	mvns	r2, r0
 200334a:	43e9      	mvns	r1, r5
 200334c:	43d8      	mvns	r0, r3
 200334e:	0612      	lsls	r2, r2, #24
 2003350:	0609      	lsls	r1, r1, #24
 2003352:	0600      	lsls	r0, r0, #24
 2003354:	0e12      	lsrs	r2, r2, #24
 2003356:	0e09      	lsrs	r1, r1, #24
 2003358:	0e00      	lsrs	r0, r0, #24
 200335a:	f7ff ff97 	bl	200328c <hrt_GenerateColorFromRGB>
 200335e:	3601      	adds	r6, #1
 2003360:	8020      	strh	r0, [r4, #0]
 2003362:	9801      	ldr	r0, [sp, #4]
 2003364:	e7d7      	b.n	2003316 <hrt_InvertPalette+0x16>
 2003366:	2a01      	cmp	r2, #1
 2003368:	d1da      	bne.n	2003320 <hrt_InvertPalette+0x20>
 200336a:	4b13      	ldr	r3, [pc, #76]	; (20033b8 <hrt_InvertPalette+0xb8>)
 200336c:	18c0      	adds	r0, r0, r3
 200336e:	2380      	movs	r3, #128	; 0x80
 2003370:	0044      	lsls	r4, r0, #1
 2003372:	009b      	lsls	r3, r3, #2
 2003374:	18e3      	adds	r3, r4, r3
 2003376:	9301      	str	r3, [sp, #4]
 2003378:	8827      	ldrh	r7, [r4, #0]
 200337a:	0038      	movs	r0, r7
 200337c:	f7ff ff98 	bl	20032b0 <hrt_GetRedValueFromBGR>
 2003380:	0005      	movs	r5, r0
 2003382:	0038      	movs	r0, r7
 2003384:	f7ff ffa0 	bl	20032c8 <hrt_GetGreenValueFromBGR>
 2003388:	0006      	movs	r6, r0
 200338a:	0038      	movs	r0, r7
 200338c:	f7ff ffaa 	bl	20032e4 <hrt_GetBlueValueFromBGR>
 2003390:	43f1      	mvns	r1, r6
 2003392:	43c2      	mvns	r2, r0
 2003394:	43e8      	mvns	r0, r5
 2003396:	0612      	lsls	r2, r2, #24
 2003398:	0609      	lsls	r1, r1, #24
 200339a:	0600      	lsls	r0, r0, #24
 200339c:	0e12      	lsrs	r2, r2, #24
 200339e:	0e09      	lsrs	r1, r1, #24
 20033a0:	0e00      	lsrs	r0, r0, #24
 20033a2:	f7ff ff73 	bl	200328c <hrt_GenerateColorFromRGB>
 20033a6:	9b01      	ldr	r3, [sp, #4]
 20033a8:	8020      	strh	r0, [r4, #0]
 20033aa:	3402      	adds	r4, #2
 20033ac:	429c      	cmp	r4, r3
 20033ae:	d1e3      	bne.n	2003378 <hrt_InvertPalette+0x78>
 20033b0:	e7b6      	b.n	2003320 <hrt_InvertPalette+0x20>
 20033b2:	46c0      	nop			; (mov r8, r8)
 20033b4:	0300120c 	movweq	r1, #524	; 0x20c
 20033b8:	02800100 	addeq	r0, r0, #0, 2

020033bc <hrt_DSPSetBGMode>:
 20033bc:	4b05      	ldr	r3, [pc, #20]	; (20033d4 <hrt_DSPSetBGMode+0x18>)
 20033be:	781b      	ldrb	r3, [r3, #0]
 20033c0:	2b01      	cmp	r3, #1
 20033c2:	d106      	bne.n	20033d2 <hrt_DSPSetBGMode+0x16>
 20033c4:	2280      	movs	r2, #128	; 0x80
 20033c6:	2107      	movs	r1, #7
 20033c8:	04d2      	lsls	r2, r2, #19
 20033ca:	8813      	ldrh	r3, [r2, #0]
 20033cc:	438b      	bics	r3, r1
 20033ce:	4303      	orrs	r3, r0
 20033d0:	8013      	strh	r3, [r2, #0]
 20033d2:	4770      	bx	lr
 20033d4:	0300120c 	movweq	r1, #524	; 0x20c

020033d8 <hrt_DSPEnableForceBlank>:
 20033d8:	4b05      	ldr	r3, [pc, #20]	; (20033f0 <hrt_DSPEnableForceBlank+0x18>)
 20033da:	781b      	ldrb	r3, [r3, #0]
 20033dc:	2b01      	cmp	r3, #1
 20033de:	d105      	bne.n	20033ec <hrt_DSPEnableForceBlank+0x14>
 20033e0:	2280      	movs	r2, #128	; 0x80
 20033e2:	04d2      	lsls	r2, r2, #19
 20033e4:	8811      	ldrh	r1, [r2, #0]
 20033e6:	337f      	adds	r3, #127	; 0x7f
 20033e8:	430b      	orrs	r3, r1
 20033ea:	8013      	strh	r3, [r2, #0]
 20033ec:	4770      	bx	lr
 20033ee:	46c0      	nop			; (mov r8, r8)
 20033f0:	0300120c 	movweq	r1, #524	; 0x20c

020033f4 <hrt_DSPDisableForceBlank>:
 20033f4:	4b05      	ldr	r3, [pc, #20]	; (200340c <hrt_DSPDisableForceBlank+0x18>)
 20033f6:	781b      	ldrb	r3, [r3, #0]
 20033f8:	2b01      	cmp	r3, #1
 20033fa:	d105      	bne.n	2003408 <hrt_DSPDisableForceBlank+0x14>
 20033fc:	2280      	movs	r2, #128	; 0x80
 20033fe:	2180      	movs	r1, #128	; 0x80
 2003400:	04d2      	lsls	r2, r2, #19
 2003402:	8813      	ldrh	r3, [r2, #0]
 2003404:	438b      	bics	r3, r1
 2003406:	8013      	strh	r3, [r2, #0]
 2003408:	4770      	bx	lr
 200340a:	46c0      	nop			; (mov r8, r8)
 200340c:	0300120c 	movweq	r1, #524	; 0x20c

02003410 <hrt_DSPEnableBG>:
 2003410:	4b05      	ldr	r3, [pc, #20]	; (2003428 <hrt_DSPEnableBG+0x18>)
 2003412:	781b      	ldrb	r3, [r3, #0]
 2003414:	2b01      	cmp	r3, #1
 2003416:	d106      	bne.n	2003426 <hrt_DSPEnableBG+0x16>
 2003418:	2280      	movs	r2, #128	; 0x80
 200341a:	3008      	adds	r0, #8
 200341c:	4083      	lsls	r3, r0
 200341e:	04d2      	lsls	r2, r2, #19
 2003420:	8811      	ldrh	r1, [r2, #0]
 2003422:	430b      	orrs	r3, r1
 2003424:	8013      	strh	r3, [r2, #0]
 2003426:	4770      	bx	lr
 2003428:	0300120c 	movweq	r1, #524	; 0x20c

0200342c <hrt_DSPDisableBG>:
 200342c:	4b05      	ldr	r3, [pc, #20]	; (2003444 <hrt_DSPDisableBG+0x18>)
 200342e:	781b      	ldrb	r3, [r3, #0]
 2003430:	2b01      	cmp	r3, #1
 2003432:	d106      	bne.n	2003442 <hrt_DSPDisableBG+0x16>
 2003434:	2180      	movs	r1, #128	; 0x80
 2003436:	3008      	adds	r0, #8
 2003438:	4083      	lsls	r3, r0
 200343a:	04c9      	lsls	r1, r1, #19
 200343c:	880a      	ldrh	r2, [r1, #0]
 200343e:	439a      	bics	r2, r3
 2003440:	800a      	strh	r2, [r1, #0]
 2003442:	4770      	bx	lr
 2003444:	0300120c 	movweq	r1, #524	; 0x20c

02003448 <hrt_DSPEnableOBJ>:
 2003448:	4b05      	ldr	r3, [pc, #20]	; (2003460 <hrt_DSPEnableOBJ+0x18>)
 200344a:	781b      	ldrb	r3, [r3, #0]
 200344c:	2b01      	cmp	r3, #1
 200344e:	d106      	bne.n	200345e <hrt_DSPEnableOBJ+0x16>
 2003450:	2280      	movs	r2, #128	; 0x80
 2003452:	2380      	movs	r3, #128	; 0x80
 2003454:	04d2      	lsls	r2, r2, #19
 2003456:	8811      	ldrh	r1, [r2, #0]
 2003458:	015b      	lsls	r3, r3, #5
 200345a:	430b      	orrs	r3, r1
 200345c:	8013      	strh	r3, [r2, #0]
 200345e:	4770      	bx	lr
 2003460:	0300120c 	movweq	r1, #524	; 0x20c

02003464 <hrt_DSPDisableOBJ>:
 2003464:	4b05      	ldr	r3, [pc, #20]	; (200347c <hrt_DSPDisableOBJ+0x18>)
 2003466:	781b      	ldrb	r3, [r3, #0]
 2003468:	2b01      	cmp	r3, #1
 200346a:	d105      	bne.n	2003478 <hrt_DSPDisableOBJ+0x14>
 200346c:	2280      	movs	r2, #128	; 0x80
 200346e:	04d2      	lsls	r2, r2, #19
 2003470:	8813      	ldrh	r3, [r2, #0]
 2003472:	4903      	ldr	r1, [pc, #12]	; (2003480 <hrt_DSPDisableOBJ+0x1c>)
 2003474:	400b      	ands	r3, r1
 2003476:	8013      	strh	r3, [r2, #0]
 2003478:	4770      	bx	lr
 200347a:	46c0      	nop			; (mov r8, r8)
 200347c:	0300120c 	movweq	r1, #524	; 0x20c
 2003480:	ffffefff 			; <UNDEFINED> instruction: 0xffffefff

02003484 <hrt_DSPEnableWIN0>:
 2003484:	4b05      	ldr	r3, [pc, #20]	; (200349c <hrt_DSPEnableWIN0+0x18>)
 2003486:	781b      	ldrb	r3, [r3, #0]
 2003488:	2b01      	cmp	r3, #1
 200348a:	d106      	bne.n	200349a <hrt_DSPEnableWIN0+0x16>
 200348c:	2280      	movs	r2, #128	; 0x80
 200348e:	2380      	movs	r3, #128	; 0x80
 2003490:	04d2      	lsls	r2, r2, #19
 2003492:	8811      	ldrh	r1, [r2, #0]
 2003494:	019b      	lsls	r3, r3, #6
 2003496:	430b      	orrs	r3, r1
 2003498:	8013      	strh	r3, [r2, #0]
 200349a:	4770      	bx	lr
 200349c:	0300120c 	movweq	r1, #524	; 0x20c

020034a0 <hrt_DSPDisableWIN0>:
 20034a0:	4b05      	ldr	r3, [pc, #20]	; (20034b8 <hrt_DSPDisableWIN0+0x18>)
 20034a2:	781b      	ldrb	r3, [r3, #0]
 20034a4:	2b01      	cmp	r3, #1
 20034a6:	d105      	bne.n	20034b4 <hrt_DSPDisableWIN0+0x14>
 20034a8:	2280      	movs	r2, #128	; 0x80
 20034aa:	04d2      	lsls	r2, r2, #19
 20034ac:	8813      	ldrh	r3, [r2, #0]
 20034ae:	4903      	ldr	r1, [pc, #12]	; (20034bc <hrt_DSPDisableWIN0+0x1c>)
 20034b0:	400b      	ands	r3, r1
 20034b2:	8013      	strh	r3, [r2, #0]
 20034b4:	4770      	bx	lr
 20034b6:	46c0      	nop			; (mov r8, r8)
 20034b8:	0300120c 	movweq	r1, #524	; 0x20c
 20034bc:	ffffdfff 			; <UNDEFINED> instruction: 0xffffdfff

020034c0 <hrt_DSPEnableWIN1>:
 20034c0:	4b05      	ldr	r3, [pc, #20]	; (20034d8 <hrt_DSPEnableWIN1+0x18>)
 20034c2:	781b      	ldrb	r3, [r3, #0]
 20034c4:	2b01      	cmp	r3, #1
 20034c6:	d106      	bne.n	20034d6 <hrt_DSPEnableWIN1+0x16>
 20034c8:	2280      	movs	r2, #128	; 0x80
 20034ca:	2380      	movs	r3, #128	; 0x80
 20034cc:	04d2      	lsls	r2, r2, #19
 20034ce:	8811      	ldrh	r1, [r2, #0]
 20034d0:	01db      	lsls	r3, r3, #7
 20034d2:	430b      	orrs	r3, r1
 20034d4:	8013      	strh	r3, [r2, #0]
 20034d6:	4770      	bx	lr
 20034d8:	0300120c 	movweq	r1, #524	; 0x20c

020034dc <hrt_DSPDisableWIN1>:
 20034dc:	4b05      	ldr	r3, [pc, #20]	; (20034f4 <hrt_DSPDisableWIN1+0x18>)
 20034de:	781b      	ldrb	r3, [r3, #0]
 20034e0:	2b01      	cmp	r3, #1
 20034e2:	d105      	bne.n	20034f0 <hrt_DSPDisableWIN1+0x14>
 20034e4:	2280      	movs	r2, #128	; 0x80
 20034e6:	04d2      	lsls	r2, r2, #19
 20034e8:	8813      	ldrh	r3, [r2, #0]
 20034ea:	4903      	ldr	r1, [pc, #12]	; (20034f8 <hrt_DSPDisableWIN1+0x1c>)
 20034ec:	400b      	ands	r3, r1
 20034ee:	8013      	strh	r3, [r2, #0]
 20034f0:	4770      	bx	lr
 20034f2:	46c0      	nop			; (mov r8, r8)
 20034f4:	0300120c 	movweq	r1, #524	; 0x20c
 20034f8:	ffffbfff 			; <UNDEFINED> instruction: 0xffffbfff

020034fc <hrt_DSPEnableWINOBJ>:
 20034fc:	4b05      	ldr	r3, [pc, #20]	; (2003514 <hrt_DSPEnableWINOBJ+0x18>)
 20034fe:	781b      	ldrb	r3, [r3, #0]
 2003500:	2b01      	cmp	r3, #1
 2003502:	d105      	bne.n	2003510 <hrt_DSPEnableWINOBJ+0x14>
 2003504:	2280      	movs	r2, #128	; 0x80
 2003506:	04d2      	lsls	r2, r2, #19
 2003508:	8811      	ldrh	r1, [r2, #0]
 200350a:	4b03      	ldr	r3, [pc, #12]	; (2003518 <hrt_DSPEnableWINOBJ+0x1c>)
 200350c:	430b      	orrs	r3, r1
 200350e:	8013      	strh	r3, [r2, #0]
 2003510:	4770      	bx	lr
 2003512:	46c0      	nop			; (mov r8, r8)
 2003514:	0300120c 	movweq	r1, #524	; 0x20c
 2003518:	ffff8000 			; <UNDEFINED> instruction: 0xffff8000

0200351c <hrt_DSPDisableWINOBJ>:
 200351c:	4b05      	ldr	r3, [pc, #20]	; (2003534 <hrt_DSPDisableWINOBJ+0x18>)
 200351e:	781b      	ldrb	r3, [r3, #0]
 2003520:	2b01      	cmp	r3, #1
 2003522:	d105      	bne.n	2003530 <hrt_DSPDisableWINOBJ+0x14>
 2003524:	2280      	movs	r2, #128	; 0x80
 2003526:	04d2      	lsls	r2, r2, #19
 2003528:	8813      	ldrh	r3, [r2, #0]
 200352a:	045b      	lsls	r3, r3, #17
 200352c:	0c5b      	lsrs	r3, r3, #17
 200352e:	8013      	strh	r3, [r2, #0]
 2003530:	4770      	bx	lr
 2003532:	46c0      	nop			; (mov r8, r8)
 2003534:	0300120c 	movweq	r1, #524	; 0x20c

02003538 <hrt_DSPEnableLinearOBJ>:
 2003538:	4b05      	ldr	r3, [pc, #20]	; (2003550 <hrt_DSPEnableLinearOBJ+0x18>)
 200353a:	781b      	ldrb	r3, [r3, #0]
 200353c:	2b01      	cmp	r3, #1
 200353e:	d105      	bne.n	200354c <hrt_DSPEnableLinearOBJ+0x14>
 2003540:	2280      	movs	r2, #128	; 0x80
 2003542:	04d2      	lsls	r2, r2, #19
 2003544:	8811      	ldrh	r1, [r2, #0]
 2003546:	333f      	adds	r3, #63	; 0x3f
 2003548:	430b      	orrs	r3, r1
 200354a:	8013      	strh	r3, [r2, #0]
 200354c:	4770      	bx	lr
 200354e:	46c0      	nop			; (mov r8, r8)
 2003550:	0300120c 	movweq	r1, #524	; 0x20c

02003554 <hrt_DSPDisableLinearOBJ>:
 2003554:	4a06      	ldr	r2, [pc, #24]	; (2003570 <hrt_DSPDisableLinearOBJ+0x1c>)
 2003556:	7813      	ldrb	r3, [r2, #0]
 2003558:	3b01      	subs	r3, #1
 200355a:	061b      	lsls	r3, r3, #24
 200355c:	0e1b      	lsrs	r3, r3, #24
 200355e:	7013      	strb	r3, [r2, #0]
 2003560:	d005      	beq.n	200356e <hrt_DSPDisableLinearOBJ+0x1a>
 2003562:	2280      	movs	r2, #128	; 0x80
 2003564:	2140      	movs	r1, #64	; 0x40
 2003566:	04d2      	lsls	r2, r2, #19
 2003568:	8813      	ldrh	r3, [r2, #0]
 200356a:	438b      	bics	r3, r1
 200356c:	8013      	strh	r3, [r2, #0]
 200356e:	4770      	bx	lr
 2003570:	0300120c 	movweq	r1, #524	; 0x20c

02003574 <hrt_DSPGetBGMode>:
 2003574:	4b05      	ldr	r3, [pc, #20]	; (200358c <hrt_DSPGetBGMode+0x18>)
 2003576:	781b      	ldrb	r3, [r3, #0]
 2003578:	2000      	movs	r0, #0
 200357a:	2b01      	cmp	r3, #1
 200357c:	d104      	bne.n	2003588 <hrt_DSPGetBGMode+0x14>
 200357e:	2380      	movs	r3, #128	; 0x80
 2003580:	04db      	lsls	r3, r3, #19
 2003582:	8818      	ldrh	r0, [r3, #0]
 2003584:	2307      	movs	r3, #7
 2003586:	4018      	ands	r0, r3
 2003588:	4770      	bx	lr
 200358a:	46c0      	nop			; (mov r8, r8)
 200358c:	0300120c 	movweq	r1, #524	; 0x20c

02003590 <hrt_BGSet16Color>:
 2003590:	4b05      	ldr	r3, [pc, #20]	; (20035a8 <hrt_BGSet16Color+0x18>)
 2003592:	781b      	ldrb	r3, [r3, #0]
 2003594:	2b01      	cmp	r3, #1
 2003596:	d106      	bne.n	20035a6 <hrt_BGSet16Color+0x16>
 2003598:	2280      	movs	r2, #128	; 0x80
 200359a:	4b04      	ldr	r3, [pc, #16]	; (20035ac <hrt_BGSet16Color+0x1c>)
 200359c:	18c0      	adds	r0, r0, r3
 200359e:	0040      	lsls	r0, r0, #1
 20035a0:	8803      	ldrh	r3, [r0, #0]
 20035a2:	4393      	bics	r3, r2
 20035a4:	8003      	strh	r3, [r0, #0]
 20035a6:	4770      	bx	lr
 20035a8:	0300120c 	movweq	r1, #524	; 0x20c
 20035ac:	02000004 	andeq	r0, r0, #4

020035b0 <hrt_BGSet256Color>:
 20035b0:	4b05      	ldr	r3, [pc, #20]	; (20035c8 <hrt_BGSet256Color+0x18>)
 20035b2:	781b      	ldrb	r3, [r3, #0]
 20035b4:	2b01      	cmp	r3, #1
 20035b6:	d106      	bne.n	20035c6 <hrt_BGSet256Color+0x16>
 20035b8:	4b04      	ldr	r3, [pc, #16]	; (20035cc <hrt_BGSet256Color+0x1c>)
 20035ba:	18c0      	adds	r0, r0, r3
 20035bc:	2380      	movs	r3, #128	; 0x80
 20035be:	0040      	lsls	r0, r0, #1
 20035c0:	8802      	ldrh	r2, [r0, #0]
 20035c2:	4313      	orrs	r3, r2
 20035c4:	8003      	strh	r3, [r0, #0]
 20035c6:	4770      	bx	lr
 20035c8:	0300120c 	movweq	r1, #524	; 0x20c
 20035cc:	02000004 	andeq	r0, r0, #4

020035d0 <hrt_BGEnableMosaic>:
 20035d0:	4b05      	ldr	r3, [pc, #20]	; (20035e8 <hrt_BGEnableMosaic+0x18>)
 20035d2:	781b      	ldrb	r3, [r3, #0]
 20035d4:	2b01      	cmp	r3, #1
 20035d6:	d106      	bne.n	20035e6 <hrt_BGEnableMosaic+0x16>
 20035d8:	4b04      	ldr	r3, [pc, #16]	; (20035ec <hrt_BGEnableMosaic+0x1c>)
 20035da:	18c0      	adds	r0, r0, r3
 20035dc:	2340      	movs	r3, #64	; 0x40
 20035de:	0040      	lsls	r0, r0, #1
 20035e0:	8802      	ldrh	r2, [r0, #0]
 20035e2:	4313      	orrs	r3, r2
 20035e4:	8003      	strh	r3, [r0, #0]
 20035e6:	4770      	bx	lr
 20035e8:	0300120c 	movweq	r1, #524	; 0x20c
 20035ec:	02000004 	andeq	r0, r0, #4

020035f0 <hrt_BGDisableMosaic>:
 20035f0:	4b05      	ldr	r3, [pc, #20]	; (2003608 <hrt_BGDisableMosaic+0x18>)
 20035f2:	781b      	ldrb	r3, [r3, #0]
 20035f4:	2b01      	cmp	r3, #1
 20035f6:	d106      	bne.n	2003606 <hrt_BGDisableMosaic+0x16>
 20035f8:	2240      	movs	r2, #64	; 0x40
 20035fa:	4b04      	ldr	r3, [pc, #16]	; (200360c <hrt_BGDisableMosaic+0x1c>)
 20035fc:	18c0      	adds	r0, r0, r3
 20035fe:	0040      	lsls	r0, r0, #1
 2003600:	8803      	ldrh	r3, [r0, #0]
 2003602:	4393      	bics	r3, r2
 2003604:	8003      	strh	r3, [r0, #0]
 2003606:	4770      	bx	lr
 2003608:	0300120c 	movweq	r1, #524	; 0x20c
 200360c:	02000004 	andeq	r0, r0, #4

02003610 <hrt_BGSetSize>:
 2003610:	4b08      	ldr	r3, [pc, #32]	; (2003634 <hrt_BGSetSize+0x24>)
 2003612:	781b      	ldrb	r3, [r3, #0]
 2003614:	2b01      	cmp	r3, #1
 2003616:	d10c      	bne.n	2003632 <hrt_BGSetSize+0x22>
 2003618:	4b07      	ldr	r3, [pc, #28]	; (2003638 <hrt_BGSetSize+0x28>)
 200361a:	18c0      	adds	r0, r0, r3
 200361c:	0040      	lsls	r0, r0, #1
 200361e:	8803      	ldrh	r3, [r0, #0]
 2003620:	049b      	lsls	r3, r3, #18
 2003622:	0c9b      	lsrs	r3, r3, #18
 2003624:	8003      	strh	r3, [r0, #0]
 2003626:	8803      	ldrh	r3, [r0, #0]
 2003628:	0389      	lsls	r1, r1, #14
 200362a:	4319      	orrs	r1, r3
 200362c:	0409      	lsls	r1, r1, #16
 200362e:	0c09      	lsrs	r1, r1, #16
 2003630:	8001      	strh	r1, [r0, #0]
 2003632:	4770      	bx	lr
 2003634:	0300120c 	movweq	r1, #524	; 0x20c
 2003638:	02000004 	andeq	r0, r0, #4

0200363c <hrt_BGSetMapBase>:
 200363c:	4b07      	ldr	r3, [pc, #28]	; (200365c <hrt_BGSetMapBase+0x20>)
 200363e:	781b      	ldrb	r3, [r3, #0]
 2003640:	2b01      	cmp	r3, #1
 2003642:	d10a      	bne.n	200365a <hrt_BGSetMapBase+0x1e>
 2003644:	4b06      	ldr	r3, [pc, #24]	; (2003660 <hrt_BGSetMapBase+0x24>)
 2003646:	18c0      	adds	r0, r0, r3
 2003648:	0040      	lsls	r0, r0, #1
 200364a:	8803      	ldrh	r3, [r0, #0]
 200364c:	4a05      	ldr	r2, [pc, #20]	; (2003664 <hrt_BGSetMapBase+0x28>)
 200364e:	4013      	ands	r3, r2
 2003650:	8003      	strh	r3, [r0, #0]
 2003652:	8803      	ldrh	r3, [r0, #0]
 2003654:	0209      	lsls	r1, r1, #8
 2003656:	4319      	orrs	r1, r3
 2003658:	8001      	strh	r1, [r0, #0]
 200365a:	4770      	bx	lr
 200365c:	0300120c 	movweq	r1, #524	; 0x20c
 2003660:	02000004 	andeq	r0, r0, #4
 2003664:	ffffe0ff 			; <UNDEFINED> instruction: 0xffffe0ff

02003668 <hrt_BGSetTileBase>:
 2003668:	4b07      	ldr	r3, [pc, #28]	; (2003688 <hrt_BGSetTileBase+0x20>)
 200366a:	781b      	ldrb	r3, [r3, #0]
 200366c:	2b01      	cmp	r3, #1
 200366e:	d10a      	bne.n	2003686 <hrt_BGSetTileBase+0x1e>
 2003670:	220c      	movs	r2, #12
 2003672:	4b06      	ldr	r3, [pc, #24]	; (200368c <hrt_BGSetTileBase+0x24>)
 2003674:	18c0      	adds	r0, r0, r3
 2003676:	0040      	lsls	r0, r0, #1
 2003678:	8803      	ldrh	r3, [r0, #0]
 200367a:	4393      	bics	r3, r2
 200367c:	8003      	strh	r3, [r0, #0]
 200367e:	8803      	ldrh	r3, [r0, #0]
 2003680:	0089      	lsls	r1, r1, #2
 2003682:	4319      	orrs	r1, r3
 2003684:	8001      	strh	r1, [r0, #0]
 2003686:	4770      	bx	lr
 2003688:	0300120c 	movweq	r1, #524	; 0x20c
 200368c:	02000004 	andeq	r0, r0, #4

02003690 <hrt_BGSetPriority>:
 2003690:	4b07      	ldr	r3, [pc, #28]	; (20036b0 <hrt_BGSetPriority+0x20>)
 2003692:	781b      	ldrb	r3, [r3, #0]
 2003694:	2b01      	cmp	r3, #1
 2003696:	d109      	bne.n	20036ac <hrt_BGSetPriority+0x1c>
 2003698:	4b06      	ldr	r3, [pc, #24]	; (20036b4 <hrt_BGSetPriority+0x24>)
 200369a:	18c0      	adds	r0, r0, r3
 200369c:	2302      	movs	r3, #2
 200369e:	0040      	lsls	r0, r0, #1
 20036a0:	8802      	ldrh	r2, [r0, #0]
 20036a2:	439a      	bics	r2, r3
 20036a4:	8002      	strh	r2, [r0, #0]
 20036a6:	8803      	ldrh	r3, [r0, #0]
 20036a8:	430b      	orrs	r3, r1
 20036aa:	8003      	strh	r3, [r0, #0]
 20036ac:	4770      	bx	lr
 20036ae:	46c0      	nop			; (mov r8, r8)
 20036b0:	0300120c 	movweq	r1, #524	; 0x20c
 20036b4:	02000004 	andeq	r0, r0, #4

020036b8 <hrt_SetBGXY>:
 20036b8:	4b0a      	ldr	r3, [pc, #40]	; (20036e4 <hrt_SetBGXY+0x2c>)
 20036ba:	781b      	ldrb	r3, [r3, #0]
 20036bc:	2b01      	cmp	r3, #1
 20036be:	d10f      	bne.n	20036e0 <hrt_SetBGXY+0x28>
 20036c0:	4b09      	ldr	r3, [pc, #36]	; (20036e8 <hrt_SetBGXY+0x30>)
 20036c2:	0080      	lsls	r0, r0, #2
 20036c4:	0409      	lsls	r1, r1, #16
 20036c6:	18c3      	adds	r3, r0, r3
 20036c8:	0c09      	lsrs	r1, r1, #16
 20036ca:	8019      	strh	r1, [r3, #0]
 20036cc:	4b07      	ldr	r3, [pc, #28]	; (20036ec <hrt_SetBGXY+0x34>)
 20036ce:	18c0      	adds	r0, r0, r3
 20036d0:	0413      	lsls	r3, r2, #16
 20036d2:	0612      	lsls	r2, r2, #24
 20036d4:	0e12      	lsrs	r2, r2, #24
 20036d6:	7801      	ldrb	r1, [r0, #0]
 20036d8:	7002      	strb	r2, [r0, #0]
 20036da:	0e1b      	lsrs	r3, r3, #24
 20036dc:	7842      	ldrb	r2, [r0, #1]
 20036de:	7043      	strb	r3, [r0, #1]
 20036e0:	4770      	bx	lr
 20036e2:	46c0      	nop			; (mov r8, r8)
 20036e4:	0300120c 	movweq	r1, #524	; 0x20c
 20036e8:	0400000a 	streq	r0, [r0], #-10
 20036ec:	0400000b 	streq	r0, [r0], #-11

020036f0 <hrt_SetBGX>:
 20036f0:	4b05      	ldr	r3, [pc, #20]	; (2003708 <hrt_SetBGX+0x18>)
 20036f2:	781b      	ldrb	r3, [r3, #0]
 20036f4:	2b01      	cmp	r3, #1
 20036f6:	d105      	bne.n	2003704 <hrt_SetBGX+0x14>
 20036f8:	4b04      	ldr	r3, [pc, #16]	; (200370c <hrt_SetBGX+0x1c>)
 20036fa:	0080      	lsls	r0, r0, #2
 20036fc:	0409      	lsls	r1, r1, #16
 20036fe:	18c0      	adds	r0, r0, r3
 2003700:	0c09      	lsrs	r1, r1, #16
 2003702:	8001      	strh	r1, [r0, #0]
 2003704:	4770      	bx	lr
 2003706:	46c0      	nop			; (mov r8, r8)
 2003708:	0300120c 	movweq	r1, #524	; 0x20c
 200370c:	0400000a 	streq	r0, [r0], #-10

02003710 <hrt_SetBGY>:
 2003710:	4b07      	ldr	r3, [pc, #28]	; (2003730 <hrt_SetBGY+0x20>)
 2003712:	781b      	ldrb	r3, [r3, #0]
 2003714:	2b01      	cmp	r3, #1
 2003716:	d10a      	bne.n	200372e <hrt_SetBGY+0x1e>
 2003718:	4b06      	ldr	r3, [pc, #24]	; (2003734 <hrt_SetBGY+0x24>)
 200371a:	0080      	lsls	r0, r0, #2
 200371c:	18c0      	adds	r0, r0, r3
 200371e:	040b      	lsls	r3, r1, #16
 2003720:	0609      	lsls	r1, r1, #24
 2003722:	0e09      	lsrs	r1, r1, #24
 2003724:	7802      	ldrb	r2, [r0, #0]
 2003726:	7001      	strb	r1, [r0, #0]
 2003728:	0e1b      	lsrs	r3, r3, #24
 200372a:	7842      	ldrb	r2, [r0, #1]
 200372c:	7043      	strb	r3, [r0, #1]
 200372e:	4770      	bx	lr
 2003730:	0300120c 	movweq	r1, #524	; 0x20c
 2003734:	0400000b 	streq	r0, [r0], #-11

02003738 <hrt_GetBGX>:
 2003738:	4b06      	ldr	r3, [pc, #24]	; (2003754 <hrt_GetBGX+0x1c>)
 200373a:	781a      	ldrb	r2, [r3, #0]
 200373c:	2300      	movs	r3, #0
 200373e:	2a01      	cmp	r2, #1
 2003740:	d105      	bne.n	200374e <hrt_GetBGX+0x16>
 2003742:	4b05      	ldr	r3, [pc, #20]	; (2003758 <hrt_GetBGX+0x20>)
 2003744:	0080      	lsls	r0, r0, #2
 2003746:	18c0      	adds	r0, r0, r3
 2003748:	8803      	ldrh	r3, [r0, #0]
 200374a:	041b      	lsls	r3, r3, #16
 200374c:	141b      	asrs	r3, r3, #16
 200374e:	0018      	movs	r0, r3
 2003750:	4770      	bx	lr
 2003752:	46c0      	nop			; (mov r8, r8)
 2003754:	0300120c 	movweq	r1, #524	; 0x20c
 2003758:	0400000a 	streq	r0, [r0], #-10

0200375c <hrt_GetBGY>:
 200375c:	4a07      	ldr	r2, [pc, #28]	; (200377c <hrt_GetBGY+0x20>)
 200375e:	7812      	ldrb	r2, [r2, #0]
 2003760:	0003      	movs	r3, r0
 2003762:	2000      	movs	r0, #0
 2003764:	2a01      	cmp	r2, #1
 2003766:	d108      	bne.n	200377a <hrt_GetBGY+0x1e>
 2003768:	4a05      	ldr	r2, [pc, #20]	; (2003780 <hrt_GetBGY+0x24>)
 200376a:	009b      	lsls	r3, r3, #2
 200376c:	189b      	adds	r3, r3, r2
 200376e:	781a      	ldrb	r2, [r3, #0]
 2003770:	7858      	ldrb	r0, [r3, #1]
 2003772:	0200      	lsls	r0, r0, #8
 2003774:	4310      	orrs	r0, r2
 2003776:	0400      	lsls	r0, r0, #16
 2003778:	1400      	asrs	r0, r0, #16
 200377a:	4770      	bx	lr
 200377c:	0300120c 	movweq	r1, #524	; 0x20c
 2003780:	0400000b 	streq	r0, [r0], #-11

02003784 <hrt_GetBGPriority>:
 2003784:	4b04      	ldr	r3, [pc, #16]	; (2003798 <hrt_GetBGPriority+0x14>)
 2003786:	781b      	ldrb	r3, [r3, #0]
 2003788:	2b01      	cmp	r3, #1
 200378a:	d103      	bne.n	2003794 <hrt_GetBGPriority+0x10>
 200378c:	4b03      	ldr	r3, [pc, #12]	; (200379c <hrt_GetBGPriority+0x18>)
 200378e:	18c0      	adds	r0, r0, r3
 2003790:	0040      	lsls	r0, r0, #1
 2003792:	8803      	ldrh	r3, [r0, #0]
 2003794:	2000      	movs	r0, #0
 2003796:	4770      	bx	lr
 2003798:	0300120c 	movweq	r1, #524	; 0x20c
 200379c:	02000004 	andeq	r0, r0, #4

020037a0 <hrt_GetBGTileBase>:
 20037a0:	4a06      	ldr	r2, [pc, #24]	; (20037bc <hrt_GetBGTileBase+0x1c>)
 20037a2:	7812      	ldrb	r2, [r2, #0]
 20037a4:	0003      	movs	r3, r0
 20037a6:	2000      	movs	r0, #0
 20037a8:	2a01      	cmp	r2, #1
 20037aa:	d105      	bne.n	20037b8 <hrt_GetBGTileBase+0x18>
 20037ac:	4a04      	ldr	r2, [pc, #16]	; (20037c0 <hrt_GetBGTileBase+0x20>)
 20037ae:	189b      	adds	r3, r3, r2
 20037b0:	005b      	lsls	r3, r3, #1
 20037b2:	8818      	ldrh	r0, [r3, #0]
 20037b4:	2302      	movs	r3, #2
 20037b6:	4018      	ands	r0, r3
 20037b8:	4770      	bx	lr
 20037ba:	46c0      	nop			; (mov r8, r8)
 20037bc:	0300120c 	movweq	r1, #524	; 0x20c
 20037c0:	02000004 	andeq	r0, r0, #4

020037c4 <hrt_GetBGMapBase>:
 20037c4:	4a06      	ldr	r2, [pc, #24]	; (20037e0 <hrt_GetBGMapBase+0x1c>)
 20037c6:	7812      	ldrb	r2, [r2, #0]
 20037c8:	0003      	movs	r3, r0
 20037ca:	2000      	movs	r0, #0
 20037cc:	2a01      	cmp	r2, #1
 20037ce:	d105      	bne.n	20037dc <hrt_GetBGMapBase+0x18>
 20037d0:	4a04      	ldr	r2, [pc, #16]	; (20037e4 <hrt_GetBGMapBase+0x20>)
 20037d2:	189b      	adds	r3, r3, r2
 20037d4:	005b      	lsls	r3, r3, #1
 20037d6:	8818      	ldrh	r0, [r3, #0]
 20037d8:	2308      	movs	r3, #8
 20037da:	4018      	ands	r0, r3
 20037dc:	4770      	bx	lr
 20037de:	46c0      	nop			; (mov r8, r8)
 20037e0:	0300120c 	movweq	r1, #524	; 0x20c
 20037e4:	02000004 	andeq	r0, r0, #4

020037e8 <hrt_GetBGScreenSize>:
 20037e8:	4a06      	ldr	r2, [pc, #24]	; (2003804 <hrt_GetBGScreenSize+0x1c>)
 20037ea:	7812      	ldrb	r2, [r2, #0]
 20037ec:	0003      	movs	r3, r0
 20037ee:	2000      	movs	r0, #0
 20037f0:	2a01      	cmp	r2, #1
 20037f2:	d105      	bne.n	2003800 <hrt_GetBGScreenSize+0x18>
 20037f4:	4a04      	ldr	r2, [pc, #16]	; (2003808 <hrt_GetBGScreenSize+0x20>)
 20037f6:	189b      	adds	r3, r3, r2
 20037f8:	005b      	lsls	r3, r3, #1
 20037fa:	8818      	ldrh	r0, [r3, #0]
 20037fc:	230e      	movs	r3, #14
 20037fe:	4018      	ands	r0, r3
 2003800:	4770      	bx	lr
 2003802:	46c0      	nop			; (mov r8, r8)
 2003804:	0300120c 	movweq	r1, #524	; 0x20c
 2003808:	02000004 	andeq	r0, r0, #4

0200380c <hrt_IsBGWraparound>:
 200380c:	4a06      	ldr	r2, [pc, #24]	; (2003828 <hrt_IsBGWraparound+0x1c>)
 200380e:	7812      	ldrb	r2, [r2, #0]
 2003810:	0003      	movs	r3, r0
 2003812:	2000      	movs	r0, #0
 2003814:	2a01      	cmp	r2, #1
 2003816:	d105      	bne.n	2003824 <hrt_IsBGWraparound+0x18>
 2003818:	4a04      	ldr	r2, [pc, #16]	; (200382c <hrt_IsBGWraparound+0x20>)
 200381a:	189b      	adds	r3, r3, r2
 200381c:	005b      	lsls	r3, r3, #1
 200381e:	8818      	ldrh	r0, [r3, #0]
 2003820:	230d      	movs	r3, #13
 2003822:	4018      	ands	r0, r3
 2003824:	4770      	bx	lr
 2003826:	46c0      	nop			; (mov r8, r8)
 2003828:	0300120c 	movweq	r1, #524	; 0x20c
 200382c:	02000004 	andeq	r0, r0, #4

02003830 <hrt_IsBGMosaic>:
 2003830:	4a06      	ldr	r2, [pc, #24]	; (200384c <hrt_IsBGMosaic+0x1c>)
 2003832:	7812      	ldrb	r2, [r2, #0]
 2003834:	0003      	movs	r3, r0
 2003836:	2000      	movs	r0, #0
 2003838:	2a01      	cmp	r2, #1
 200383a:	d105      	bne.n	2003848 <hrt_IsBGMosaic+0x18>
 200383c:	4a04      	ldr	r2, [pc, #16]	; (2003850 <hrt_IsBGMosaic+0x20>)
 200383e:	189b      	adds	r3, r3, r2
 2003840:	005b      	lsls	r3, r3, #1
 2003842:	8818      	ldrh	r0, [r3, #0]
 2003844:	2306      	movs	r3, #6
 2003846:	4018      	ands	r0, r3
 2003848:	4770      	bx	lr
 200384a:	46c0      	nop			; (mov r8, r8)
 200384c:	0300120c 	movweq	r1, #524	; 0x20c
 2003850:	02000004 	andeq	r0, r0, #4

02003854 <hrt_DSPIsBGEnabled>:
 2003854:	4b07      	ldr	r3, [pc, #28]	; (2003874 <hrt_DSPIsBGEnabled+0x20>)
 2003856:	781b      	ldrb	r3, [r3, #0]
 2003858:	0002      	movs	r2, r0
 200385a:	2000      	movs	r0, #0
 200385c:	2b01      	cmp	r3, #1
 200385e:	d108      	bne.n	2003872 <hrt_DSPIsBGEnabled+0x1e>
 2003860:	4b05      	ldr	r3, [pc, #20]	; (2003878 <hrt_DSPIsBGEnabled+0x24>)
 2003862:	18d3      	adds	r3, r2, r3
 2003864:	3208      	adds	r2, #8
 2003866:	0010      	movs	r0, r2
 2003868:	005b      	lsls	r3, r3, #1
 200386a:	881b      	ldrh	r3, [r3, #0]
 200386c:	4018      	ands	r0, r3
 200386e:	0600      	lsls	r0, r0, #24
 2003870:	0e00      	lsrs	r0, r0, #24
 2003872:	4770      	bx	lr
 2003874:	0300120c 	movweq	r1, #524	; 0x20c
 2003878:	02000004 	andeq	r0, r0, #4

0200387c <hrt_DSPIsHBlankUnlocked>:
 200387c:	4b05      	ldr	r3, [pc, #20]	; (2003894 <hrt_DSPIsHBlankUnlocked+0x18>)
